
Propeller_CM4.elf:     file format elf32-littlearm

Sections:
Idx Name          Size      VMA       LMA       File off  Algn
  0 .isr_vector   00000298  08100000  08100000  00010000  2**0
                  CONTENTS, ALLOC, LOAD, READONLY, DATA
  1 .text         0000384c  08100298  08100298  00010298  2**2
                  CONTENTS, ALLOC, LOAD, READONLY, CODE
  2 .rodata       00000010  08103ae4  08103ae4  00013ae4  2**0
                  CONTENTS, ALLOC, LOAD, READONLY, DATA
  3 .init_array   00000004  08103af4  08103af4  00013af4  2**2
                  CONTENTS, ALLOC, LOAD, DATA
  4 .fini_array   00000004  08103af8  08103af8  00013af8  2**2
                  CONTENTS, ALLOC, LOAD, DATA
  5 .data         00000010  10000000  08103afc  00020000  2**2
                  CONTENTS, ALLOC, LOAD, DATA
  6 .bss          00000308  10000010  08103b0c  00020010  2**2
                  ALLOC
  7 ._user_heap_stack 00000600  10000318  08103b0c  00020318  2**0
                  ALLOC
  8 .ARM.attributes 00000030  00000000  00000000  00020010  2**0
                  CONTENTS, READONLY
  9 .comment      00000053  00000000  00000000  00020040  2**0
                  CONTENTS, READONLY
 10 .debug_frame  0000004c  00000000  00000000  00020094  2**2
                  CONTENTS, READONLY, DEBUGGING, OCTETS

Disassembly of section .text:

08100298 <__do_global_dtors_aux>:
 8100298:	b510      	push	{r4, lr}
 810029a:	4c05      	ldr	r4, [pc, #20]	; (81002b0 <__do_global_dtors_aux+0x18>)
 810029c:	7823      	ldrb	r3, [r4, #0]
 810029e:	b933      	cbnz	r3, 81002ae <__do_global_dtors_aux+0x16>
 81002a0:	4b04      	ldr	r3, [pc, #16]	; (81002b4 <__do_global_dtors_aux+0x1c>)
 81002a2:	b113      	cbz	r3, 81002aa <__do_global_dtors_aux+0x12>
 81002a4:	4804      	ldr	r0, [pc, #16]	; (81002b8 <__do_global_dtors_aux+0x20>)
 81002a6:	f3af 8000 	nop.w
 81002aa:	2301      	movs	r3, #1
 81002ac:	7023      	strb	r3, [r4, #0]
 81002ae:	bd10      	pop	{r4, pc}
 81002b0:	10000010 	.word	0x10000010
 81002b4:	00000000 	.word	0x00000000
 81002b8:	08103acc 	.word	0x08103acc

081002bc <frame_dummy>:
 81002bc:	b508      	push	{r3, lr}
 81002be:	4b03      	ldr	r3, [pc, #12]	; (81002cc <frame_dummy+0x10>)
 81002c0:	b11b      	cbz	r3, 81002ca <frame_dummy+0xe>
 81002c2:	4903      	ldr	r1, [pc, #12]	; (81002d0 <frame_dummy+0x14>)
 81002c4:	4803      	ldr	r0, [pc, #12]	; (81002d4 <frame_dummy+0x18>)
 81002c6:	f3af 8000 	nop.w
 81002ca:	bd08      	pop	{r3, pc}
 81002cc:	00000000 	.word	0x00000000
 81002d0:	10000014 	.word	0x10000014
 81002d4:	08103acc 	.word	0x08103acc

081002d8 <SystemInit>:
 81002d8:	4b07      	ldr	r3, [pc, #28]	; (81002f8 <SystemInit+0x20>)
 81002da:	f8d3 2088 	ldr.w	r2, [r3, #136]	; 0x88
 81002de:	f442 0270 	orr.w	r2, r2, #15728640	; 0xf00000
 81002e2:	f8c3 2088 	str.w	r2, [r3, #136]	; 0x88
 81002e6:	691a      	ldr	r2, [r3, #16]
 81002e8:	f042 0210 	orr.w	r2, r2, #16
 81002ec:	611a      	str	r2, [r3, #16]
 81002ee:	f04f 6201 	mov.w	r2, #135266304	; 0x8100000
 81002f2:	609a      	str	r2, [r3, #8]
 81002f4:	4770      	bx	lr
 81002f6:	bf00      	nop
 81002f8:	e000ed00 	.word	0xe000ed00

081002fc <MX_ADC1_Init>:
 81002fc:	b510      	push	{r4, lr}
 81002fe:	2400      	movs	r4, #0
 8100300:	b08a      	sub	sp, #40	; 0x28
 8100302:	221c      	movs	r2, #28
 8100304:	4621      	mov	r1, r4
 8100306:	a803      	add	r0, sp, #12
 8100308:	e9cd 4400 	strd	r4, r4, [sp]
 810030c:	9402      	str	r4, [sp, #8]
 810030e:	f003 fbd5 	bl	8103abc <memset>
 8100312:	4820      	ldr	r0, [pc, #128]	; (8100394 <MX_ADC1_Init+0x98>)
 8100314:	f8df c084 	ldr.w	ip, [pc, #132]	; 810039c <MX_ADC1_Init+0xa0>
 8100318:	8284      	strh	r4, [r0, #20]
 810031a:	f44f 2380 	mov.w	r3, #262144	; 0x40000
 810031e:	e9c0 c300 	strd	ip, r3, [r0]
 8100322:	2308      	movs	r3, #8
 8100324:	e9c0 3402 	strd	r3, r4, [r0, #8]
 8100328:	2304      	movs	r3, #4
 810032a:	6103      	str	r3, [r0, #16]
 810032c:	2301      	movs	r3, #1
 810032e:	6183      	str	r3, [r0, #24]
 8100330:	f44f 6e90 	mov.w	lr, #1152	; 0x480
 8100334:	f44f 6380 	mov.w	r3, #1024	; 0x400
 8100338:	e9c0 e309 	strd	lr, r3, [r0, #36]	; 0x24
 810033c:	e9c0 440b 	strd	r4, r4, [r0, #44]	; 0x2c
 8100340:	7704      	strb	r4, [r0, #28]
 8100342:	6344      	str	r4, [r0, #52]	; 0x34
 8100344:	f880 4038 	strb.w	r4, [r0, #56]	; 0x38
 8100348:	f001 f8d4 	bl	81014f4 <HAL_ADC_Init>
 810034c:	b108      	cbz	r0, 8100352 <MX_ADC1_Init+0x56>
 810034e:	f000 f9df 	bl	8100710 <Error_Handler>
 8100352:	4810      	ldr	r0, [pc, #64]	; (8100394 <MX_ADC1_Init+0x98>)
 8100354:	9400      	str	r4, [sp, #0]
 8100356:	4669      	mov	r1, sp
 8100358:	f001 f9e0 	bl	810171c <HAL_ADCEx_MultiModeConfigChannel>
 810035c:	b108      	cbz	r0, 8100362 <MX_ADC1_Init+0x66>
 810035e:	f000 f9d7 	bl	8100710 <Error_Handler>
 8100362:	4a0d      	ldr	r2, [pc, #52]	; (8100398 <MX_ADC1_Init+0x9c>)
 8100364:	2306      	movs	r3, #6
 8100366:	2105      	movs	r1, #5
 8100368:	e9cd 2303 	strd	r2, r3, [sp, #12]
 810036c:	f240 73ff 	movw	r3, #2047	; 0x7ff
 8100370:	e9cd 1305 	strd	r1, r3, [sp, #20]
 8100374:	2004      	movs	r0, #4
 8100376:	2300      	movs	r3, #0
 8100378:	e9cd 0307 	strd	r0, r3, [sp, #28]
 810037c:	a903      	add	r1, sp, #12
 810037e:	4805      	ldr	r0, [pc, #20]	; (8100394 <MX_ADC1_Init+0x98>)
 8100380:	f88d 3025 	strb.w	r3, [sp, #37]	; 0x25
 8100384:	f000 fd4c 	bl	8100e20 <HAL_ADC_ConfigChannel>
 8100388:	b108      	cbz	r0, 810038e <MX_ADC1_Init+0x92>
 810038a:	f000 f9c1 	bl	8100710 <Error_Handler>
 810038e:	b00a      	add	sp, #40	; 0x28
 8100390:	bd10      	pop	{r4, pc}
 8100392:	bf00      	nop
 8100394:	1000003c 	.word	0x1000003c
 8100398:	08600004 	.word	0x08600004
 810039c:	40022000 	.word	0x40022000

081003a0 <HAL_ADC_MspInit>:
 81003a0:	b510      	push	{r4, lr}
 81003a2:	b0b6      	sub	sp, #216	; 0xd8
 81003a4:	4604      	mov	r4, r0
 81003a6:	2214      	movs	r2, #20
 81003a8:	2100      	movs	r1, #0
 81003aa:	a802      	add	r0, sp, #8
 81003ac:	f003 fb86 	bl	8103abc <memset>
 81003b0:	22bc      	movs	r2, #188	; 0xbc
 81003b2:	2100      	movs	r1, #0
 81003b4:	a807      	add	r0, sp, #28
 81003b6:	f003 fb81 	bl	8103abc <memset>
 81003ba:	6822      	ldr	r2, [r4, #0]
 81003bc:	4b24      	ldr	r3, [pc, #144]	; (8100450 <HAL_ADC_MspInit+0xb0>)
 81003be:	429a      	cmp	r2, r3
 81003c0:	d143      	bne.n	810044a <HAL_ADC_MspInit+0xaa>
 81003c2:	2304      	movs	r3, #4
 81003c4:	f44f 2100 	mov.w	r1, #524288	; 0x80000
 81003c8:	2078      	movs	r0, #120	; 0x78
 81003ca:	e9cd 1307 	strd	r1, r3, [sp, #28]
 81003ce:	2306      	movs	r3, #6
 81003d0:	e9cd 0309 	strd	r0, r3, [sp, #36]	; 0x24
 81003d4:	2302      	movs	r3, #2
 81003d6:	e9cd 330b 	strd	r3, r3, [sp, #44]	; 0x2c
 81003da:	2440      	movs	r4, #64	; 0x40
 81003dc:	2300      	movs	r3, #0
 81003de:	a807      	add	r0, sp, #28
 81003e0:	e9cd 430d 	strd	r4, r3, [sp, #52]	; 0x34
 81003e4:	930f      	str	r3, [sp, #60]	; 0x3c
 81003e6:	932f      	str	r3, [sp, #188]	; 0xbc
 81003e8:	f001 fd80 	bl	8101eec <HAL_RCCEx_PeriphCLKConfig>
 81003ec:	b108      	cbz	r0, 81003f2 <HAL_ADC_MspInit+0x52>
 81003ee:	f000 f98f 	bl	8100710 <Error_Handler>
 81003f2:	4b18      	ldr	r3, [pc, #96]	; (8100454 <HAL_ADC_MspInit+0xb4>)
 81003f4:	4818      	ldr	r0, [pc, #96]	; (8100458 <HAL_ADC_MspInit+0xb8>)
 81003f6:	f8d3 20d8 	ldr.w	r2, [r3, #216]	; 0xd8
 81003fa:	f042 0220 	orr.w	r2, r2, #32
 81003fe:	f8c3 20d8 	str.w	r2, [r3, #216]	; 0xd8
 8100402:	f8d3 20d8 	ldr.w	r2, [r3, #216]	; 0xd8
 8100406:	f002 0220 	and.w	r2, r2, #32
 810040a:	9200      	str	r2, [sp, #0]
 810040c:	9a00      	ldr	r2, [sp, #0]
 810040e:	f8d3 20e0 	ldr.w	r2, [r3, #224]	; 0xe0
 8100412:	f042 0220 	orr.w	r2, r2, #32
 8100416:	f8c3 20e0 	str.w	r2, [r3, #224]	; 0xe0
 810041a:	f8d3 30e0 	ldr.w	r3, [r3, #224]	; 0xe0
 810041e:	f003 0320 	and.w	r3, r3, #32
 8100422:	9301      	str	r3, [sp, #4]
 8100424:	f44f 6200 	mov.w	r2, #2048	; 0x800
 8100428:	2400      	movs	r4, #0
 810042a:	9b01      	ldr	r3, [sp, #4]
 810042c:	9404      	str	r4, [sp, #16]
 810042e:	2303      	movs	r3, #3
 8100430:	a902      	add	r1, sp, #8
 8100432:	e9cd 2302 	strd	r2, r3, [sp, #8]
 8100436:	f001 fa6b 	bl	8101910 <HAL_GPIO_Init>
 810043a:	2012      	movs	r0, #18
 810043c:	4622      	mov	r2, r4
 810043e:	4621      	mov	r1, r4
 8100440:	f001 fa04 	bl	810184c <HAL_NVIC_SetPriority>
 8100444:	2012      	movs	r0, #18
 8100446:	f001 fa33 	bl	81018b0 <HAL_NVIC_EnableIRQ>
 810044a:	b036      	add	sp, #216	; 0xd8
 810044c:	bd10      	pop	{r4, pc}
 810044e:	bf00      	nop
 8100450:	40022000 	.word	0x40022000
 8100454:	58024400 	.word	0x58024400
 8100458:	58021400 	.word	0x58021400

0810045c <MX_GPIO_Init>:
 810045c:	b5f0      	push	{r4, r5, r6, r7, lr}
 810045e:	2214      	movs	r2, #20
 8100460:	b08b      	sub	sp, #44	; 0x2c
 8100462:	eb0d 0002 	add.w	r0, sp, r2
 8100466:	2100      	movs	r1, #0
 8100468:	f003 fb28 	bl	8103abc <memset>
 810046c:	4b2e      	ldr	r3, [pc, #184]	; (8100528 <MX_GPIO_Init+0xcc>)
 810046e:	4f2f      	ldr	r7, [pc, #188]	; (810052c <MX_GPIO_Init+0xd0>)
 8100470:	f8d3 20e0 	ldr.w	r2, [r3, #224]	; 0xe0
 8100474:	4d2e      	ldr	r5, [pc, #184]	; (8100530 <MX_GPIO_Init+0xd4>)
 8100476:	f042 0204 	orr.w	r2, r2, #4
 810047a:	f8c3 20e0 	str.w	r2, [r3, #224]	; 0xe0
 810047e:	f8d3 20e0 	ldr.w	r2, [r3, #224]	; 0xe0
 8100482:	f002 0204 	and.w	r2, r2, #4
 8100486:	9201      	str	r2, [sp, #4]
 8100488:	9a01      	ldr	r2, [sp, #4]
 810048a:	f8d3 20e0 	ldr.w	r2, [r3, #224]	; 0xe0
 810048e:	f042 0202 	orr.w	r2, r2, #2
 8100492:	f8c3 20e0 	str.w	r2, [r3, #224]	; 0xe0
 8100496:	f8d3 20e0 	ldr.w	r2, [r3, #224]	; 0xe0
 810049a:	f002 0202 	and.w	r2, r2, #2
 810049e:	9202      	str	r2, [sp, #8]
 81004a0:	9a02      	ldr	r2, [sp, #8]
 81004a2:	f8d3 20e0 	ldr.w	r2, [r3, #224]	; 0xe0
 81004a6:	f042 0220 	orr.w	r2, r2, #32
 81004aa:	f8c3 20e0 	str.w	r2, [r3, #224]	; 0xe0
 81004ae:	f8d3 20e0 	ldr.w	r2, [r3, #224]	; 0xe0
 81004b2:	f002 0220 	and.w	r2, r2, #32
 81004b6:	9203      	str	r2, [sp, #12]
 81004b8:	9a03      	ldr	r2, [sp, #12]
 81004ba:	f8d3 20e0 	ldr.w	r2, [r3, #224]	; 0xe0
 81004be:	f042 0210 	orr.w	r2, r2, #16
 81004c2:	f8c3 20e0 	str.w	r2, [r3, #224]	; 0xe0
 81004c6:	f8d3 30e0 	ldr.w	r3, [r3, #224]	; 0xe0
 81004ca:	f003 0310 	and.w	r3, r3, #16
 81004ce:	9304      	str	r3, [sp, #16]
 81004d0:	4638      	mov	r0, r7
 81004d2:	2200      	movs	r2, #0
 81004d4:	f244 0101 	movw	r1, #16385	; 0x4001
 81004d8:	9b04      	ldr	r3, [sp, #16]
 81004da:	f001 fafd 	bl	8101ad8 <HAL_GPIO_WritePin>
 81004de:	2200      	movs	r2, #0
 81004e0:	4628      	mov	r0, r5
 81004e2:	2102      	movs	r1, #2
 81004e4:	f001 faf8 	bl	8101ad8 <HAL_GPIO_WritePin>
 81004e8:	2400      	movs	r4, #0
 81004ea:	f44f 5300 	mov.w	r3, #8192	; 0x2000
 81004ee:	a905      	add	r1, sp, #20
 81004f0:	4810      	ldr	r0, [pc, #64]	; (8100534 <MX_GPIO_Init+0xd8>)
 81004f2:	9407      	str	r4, [sp, #28]
 81004f4:	e9cd 3405 	strd	r3, r4, [sp, #20]
 81004f8:	2601      	movs	r6, #1
 81004fa:	f001 fa09 	bl	8101910 <HAL_GPIO_Init>
 81004fe:	f244 0301 	movw	r3, #16385	; 0x4001
 8100502:	a905      	add	r1, sp, #20
 8100504:	4638      	mov	r0, r7
 8100506:	e9cd 3605 	strd	r3, r6, [sp, #20]
 810050a:	e9cd 4407 	strd	r4, r4, [sp, #28]
 810050e:	f001 f9ff 	bl	8101910 <HAL_GPIO_Init>
 8100512:	2302      	movs	r3, #2
 8100514:	a905      	add	r1, sp, #20
 8100516:	4628      	mov	r0, r5
 8100518:	e9cd 3605 	strd	r3, r6, [sp, #20]
 810051c:	e9cd 4407 	strd	r4, r4, [sp, #28]
 8100520:	f001 f9f6 	bl	8101910 <HAL_GPIO_Init>
 8100524:	b00b      	add	sp, #44	; 0x2c
 8100526:	bdf0      	pop	{r4, r5, r6, r7, pc}
 8100528:	58024400 	.word	0x58024400
 810052c:	58020400 	.word	0x58020400
 8100530:	58021000 	.word	0x58021000
 8100534:	58020800 	.word	0x58020800

08100538 <HAL_ADC_ConvCpltCallback>:
 8100538:	b508      	push	{r3, lr}
 810053a:	4805      	ldr	r0, [pc, #20]	; (8100550 <HAL_ADC_ConvCpltCallback+0x18>)
 810053c:	f000 fb31 	bl	8100ba2 <HAL_ADC_GetValue>
 8100540:	4a04      	ldr	r2, [pc, #16]	; (8100554 <HAL_ADC_ConvCpltCallback+0x1c>)
 8100542:	4905      	ldr	r1, [pc, #20]	; (8100558 <HAL_ADC_ConvCpltCallback+0x20>)
 8100544:	8813      	ldrh	r3, [r2, #0]
 8100546:	f821 0013 	strh.w	r0, [r1, r3, lsl #1]
 810054a:	3301      	adds	r3, #1
 810054c:	8013      	strh	r3, [r2, #0]
 810054e:	bd08      	pop	{r3, pc}
 8100550:	1000003c 	.word	0x1000003c
 8100554:	10000030 	.word	0x10000030
 8100558:	100000a0 	.word	0x100000a0

0810055c <HAL_TIM_PeriodElapsedCallback>:
 810055c:	6803      	ldr	r3, [r0, #0]
 810055e:	f1b3 4f80 	cmp.w	r3, #1073741824	; 0x40000000
 8100562:	b5f0      	push	{r4, r5, r6, r7, lr}
 8100564:	d123      	bne.n	81005ae <HAL_TIM_PeriodElapsedCallback+0x52>
 8100566:	4d15      	ldr	r5, [pc, #84]	; (81005bc <HAL_TIM_PeriodElapsedCallback+0x60>)
 8100568:	4a15      	ldr	r2, [pc, #84]	; (81005c0 <HAL_TIM_PeriodElapsedCallback+0x64>)
 810056a:	8828      	ldrh	r0, [r5, #0]
 810056c:	f8df c068 	ldr.w	ip, [pc, #104]	; 81005d8 <HAL_TIM_PeriodElapsedCallback+0x7c>
 8100570:	2300      	movs	r3, #0
 8100572:	6013      	str	r3, [r2, #0]
 8100574:	461c      	mov	r4, r3
 8100576:	4619      	mov	r1, r3
 8100578:	b2de      	uxtb	r6, r3
 810057a:	4286      	cmp	r6, r0
 810057c:	f103 0701 	add.w	r7, r3, #1
 8100580:	d316      	bcc.n	81005b0 <HAL_TIM_PeriodElapsedCallback+0x54>
 8100582:	b104      	cbz	r4, 8100586 <HAL_TIM_PeriodElapsedCallback+0x2a>
 8100584:	6011      	str	r1, [r2, #0]
 8100586:	6813      	ldr	r3, [r2, #0]
 8100588:	4a0e      	ldr	r2, [pc, #56]	; (81005c4 <HAL_TIM_PeriodElapsedCallback+0x68>)
 810058a:	fbb3 f3f0 	udiv	r3, r3, r0
 810058e:	b29b      	uxth	r3, r3
 8100590:	8013      	strh	r3, [r2, #0]
 8100592:	2200      	movs	r2, #0
 8100594:	802a      	strh	r2, [r5, #0]
 8100596:	4a0c      	ldr	r2, [pc, #48]	; (81005c8 <HAL_TIM_PeriodElapsedCallback+0x6c>)
 8100598:	2101      	movs	r1, #1
 810059a:	7011      	strb	r1, [r2, #0]
 810059c:	4a0b      	ldr	r2, [pc, #44]	; (81005cc <HAL_TIM_PeriodElapsedCallback+0x70>)
 810059e:	8053      	strh	r3, [r2, #2]
 81005a0:	4b0b      	ldr	r3, [pc, #44]	; (81005d0 <HAL_TIM_PeriodElapsedCallback+0x74>)
 81005a2:	7950      	ldrb	r0, [r2, #5]
 81005a4:	7018      	strb	r0, [r3, #0]
 81005a6:	4b0b      	ldr	r3, [pc, #44]	; (81005d4 <HAL_TIM_PeriodElapsedCallback+0x78>)
 81005a8:	781b      	ldrb	r3, [r3, #0]
 81005aa:	7113      	strb	r3, [r2, #4]
 81005ac:	8011      	strh	r1, [r2, #0]
 81005ae:	bdf0      	pop	{r4, r5, r6, r7, pc}
 81005b0:	f83c 3016 	ldrh.w	r3, [ip, r6, lsl #1]
 81005b4:	2401      	movs	r4, #1
 81005b6:	4419      	add	r1, r3
 81005b8:	463b      	mov	r3, r7
 81005ba:	e7dd      	b.n	8100578 <HAL_TIM_PeriodElapsedCallback+0x1c>
 81005bc:	10000030 	.word	0x10000030
 81005c0:	10000034 	.word	0x10000034
 81005c4:	1000002e 	.word	0x1000002e
 81005c8:	1000002c 	.word	0x1000002c
 81005cc:	38001000 	.word	0x38001000
 81005d0:	10000039 	.word	0x10000039
 81005d4:	10000038 	.word	0x10000038
 81005d8:	100000a0 	.word	0x100000a0

081005dc <main>:
 81005dc:	4b41      	ldr	r3, [pc, #260]	; (81006e4 <main+0x108>)
 81005de:	f8d3 20e0 	ldr.w	r2, [r3, #224]	; 0xe0
 81005e2:	e92d 41f3 	stmdb	sp!, {r0, r1, r4, r5, r6, r7, r8, lr}
 81005e6:	f042 7200 	orr.w	r2, r2, #33554432	; 0x2000000
 81005ea:	f8c3 20e0 	str.w	r2, [r3, #224]	; 0xe0
 81005ee:	f8d3 30e0 	ldr.w	r3, [r3, #224]	; 0xe0
 81005f2:	f003 7300 	and.w	r3, r3, #33554432	; 0x2000000
 81005f6:	2001      	movs	r0, #1
 81005f8:	9301      	str	r3, [sp, #4]
 81005fa:	9b01      	ldr	r3, [sp, #4]
 81005fc:	f001 fa72 	bl	8101ae4 <HAL_HSEM_ActivateNotification>
 8100600:	f001 faba 	bl	8101b78 <HAL_PWREx_ClearPendingEvent>
 8100604:	2201      	movs	r2, #1
 8100606:	2102      	movs	r1, #2
 8100608:	2000      	movs	r0, #0
 810060a:	f001 fa73 	bl	8101af4 <HAL_PWREx_EnterSTOPMode>
 810060e:	4b36      	ldr	r3, [pc, #216]	; (81006e8 <main+0x10c>)
 8100610:	681b      	ldr	r3, [r3, #0]
 8100612:	f3c3 1303 	ubfx	r3, r3, #4, #4
 8100616:	2b07      	cmp	r3, #7
 8100618:	4b34      	ldr	r3, [pc, #208]	; (81006ec <main+0x110>)
 810061a:	bf0b      	itete	eq
 810061c:	f8d3 2104 	ldreq.w	r2, [r3, #260]	; 0x104
 8100620:	f8d3 2114 	ldrne.w	r2, [r3, #276]	; 0x114
 8100624:	f042 0201 	orreq.w	r2, r2, #1
 8100628:	f042 0201 	orrne.w	r2, r2, #1
 810062c:	bf0c      	ite	eq
 810062e:	f8c3 2104 	streq.w	r2, [r3, #260]	; 0x104
 8100632:	f8c3 2114 	strne.w	r2, [r3, #276]	; 0x114
 8100636:	f000 fa3d 	bl	8100ab4 <HAL_Init>
 810063a:	f7ff ff0f 	bl	810045c <MX_GPIO_Init>
 810063e:	f7ff fe5d 	bl	81002fc <MX_ADC1_Init>
 8100642:	f000 f88f 	bl	8100764 <MX_TIM2_Init>
 8100646:	f000 f8c3 	bl	81007d0 <MX_TIM3_Init>
 810064a:	f000 f971 	bl	8100930 <MX_TIM1_Init>
 810064e:	4828      	ldr	r0, [pc, #160]	; (81006f0 <main+0x114>)
 8100650:	f002 fd7c 	bl	810314c <HAL_TIM_Base_Start>
 8100654:	4827      	ldr	r0, [pc, #156]	; (81006f4 <main+0x118>)
 8100656:	f000 fe03 	bl	8101260 <HAL_ADC_Start_IT>
 810065a:	4827      	ldr	r0, [pc, #156]	; (81006f8 <main+0x11c>)
 810065c:	f002 fdac 	bl	81031b8 <HAL_TIM_Base_Start_IT>
 8100660:	2100      	movs	r1, #0
 8100662:	4826      	ldr	r0, [pc, #152]	; (81006fc <main+0x120>)
 8100664:	f003 f978 	bl	8103958 <HAL_TIM_PWM_Start>
 8100668:	f000 fa7a 	bl	8100b60 <HAL_GetTick>
 810066c:	4a24      	ldr	r2, [pc, #144]	; (8100700 <main+0x124>)
 810066e:	2300      	movs	r3, #0
 8100670:	b2c5      	uxtb	r5, r0
 8100672:	7193      	strb	r3, [r2, #6]
 8100674:	461c      	mov	r4, r3
 8100676:	4698      	mov	r8, r3
 8100678:	4a21      	ldr	r2, [pc, #132]	; (8100700 <main+0x124>)
 810067a:	7991      	ldrb	r1, [r2, #6]
 810067c:	2901      	cmp	r1, #1
 810067e:	b2ce      	uxtb	r6, r1
 8100680:	d12b      	bne.n	81006da <main+0xfe>
 8100682:	b90b      	cbnz	r3, 8100688 <main+0xac>
 8100684:	7954      	ldrb	r4, [r2, #5]
 8100686:	b2e4      	uxtb	r4, r4
 8100688:	f000 fa6a 	bl	8100b60 <HAL_GetTick>
 810068c:	f241 3387 	movw	r3, #4999	; 0x1387
 8100690:	1b40      	subs	r0, r0, r5
 8100692:	4298      	cmp	r0, r3
 8100694:	d90b      	bls.n	81006ae <main+0xd2>
 8100696:	f000 fa63 	bl	8100b60 <HAL_GetTick>
 810069a:	3401      	adds	r4, #1
 810069c:	b2e4      	uxtb	r4, r4
 810069e:	2c2f      	cmp	r4, #47	; 0x2f
 81006a0:	b2c5      	uxtb	r5, r0
 81006a2:	d104      	bne.n	81006ae <main+0xd2>
 81006a4:	4b16      	ldr	r3, [pc, #88]	; (8100700 <main+0x124>)
 81006a6:	2600      	movs	r6, #0
 81006a8:	f883 8005 	strb.w	r8, [r3, #5]
 81006ac:	4634      	mov	r4, r6
 81006ae:	4b15      	ldr	r3, [pc, #84]	; (8100704 <main+0x128>)
 81006b0:	781a      	ldrb	r2, [r3, #0]
 81006b2:	b182      	cbz	r2, 81006d6 <main+0xfa>
 81006b4:	f883 8000 	strb.w	r8, [r3]
 81006b8:	4b11      	ldr	r3, [pc, #68]	; (8100700 <main+0x124>)
 81006ba:	4f13      	ldr	r7, [pc, #76]	; (8100708 <main+0x12c>)
 81006bc:	799b      	ldrb	r3, [r3, #6]
 81006be:	2b01      	cmp	r3, #1
 81006c0:	d00d      	beq.n	81006de <main+0x102>
 81006c2:	f000 fa4d 	bl	8100b60 <HAL_GetTick>
 81006c6:	4b11      	ldr	r3, [pc, #68]	; (810070c <main+0x130>)
 81006c8:	781b      	ldrb	r3, [r3, #0]
 81006ca:	703b      	strb	r3, [r7, #0]
 81006cc:	b2c5      	uxtb	r5, r0
 81006ce:	4b0b      	ldr	r3, [pc, #44]	; (81006fc <main+0x120>)
 81006d0:	783a      	ldrb	r2, [r7, #0]
 81006d2:	681b      	ldr	r3, [r3, #0]
 81006d4:	635a      	str	r2, [r3, #52]	; 0x34
 81006d6:	4633      	mov	r3, r6
 81006d8:	e7ce      	b.n	8100678 <main+0x9c>
 81006da:	461e      	mov	r6, r3
 81006dc:	e7e7      	b.n	81006ae <main+0xd2>
 81006de:	703c      	strb	r4, [r7, #0]
 81006e0:	e7f5      	b.n	81006ce <main+0xf2>
 81006e2:	bf00      	nop
 81006e4:	58024400 	.word	0x58024400
 81006e8:	e000ed00 	.word	0xe000ed00
 81006ec:	58026400 	.word	0x58026400
 81006f0:	10000230 	.word	0x10000230
 81006f4:	1000003c 	.word	0x1000003c
 81006f8:	100002c8 	.word	0x100002c8
 81006fc:	1000027c 	.word	0x1000027c
 8100700:	38001000 	.word	0x38001000
 8100704:	1000002c 	.word	0x1000002c
 8100708:	10000038 	.word	0x10000038
 810070c:	10000039 	.word	0x10000039

08100710 <Error_Handler>:
 8100710:	b672      	cpsid	i
 8100712:	e7fe      	b.n	8100712 <Error_Handler+0x2>

08100714 <HAL_MspInit>:
 8100714:	4b07      	ldr	r3, [pc, #28]	; (8100734 <HAL_MspInit+0x20>)
 8100716:	f8d3 20f4 	ldr.w	r2, [r3, #244]	; 0xf4
 810071a:	f042 0202 	orr.w	r2, r2, #2
 810071e:	f8c3 20f4 	str.w	r2, [r3, #244]	; 0xf4
 8100722:	f8d3 30f4 	ldr.w	r3, [r3, #244]	; 0xf4
 8100726:	b082      	sub	sp, #8
 8100728:	f003 0302 	and.w	r3, r3, #2
 810072c:	9301      	str	r3, [sp, #4]
 810072e:	9b01      	ldr	r3, [sp, #4]
 8100730:	b002      	add	sp, #8
 8100732:	4770      	bx	lr
 8100734:	58024400 	.word	0x58024400

08100738 <NMI_Handler>:
 8100738:	e7fe      	b.n	8100738 <NMI_Handler>

0810073a <HardFault_Handler>:
 810073a:	e7fe      	b.n	810073a <HardFault_Handler>

0810073c <MemManage_Handler>:
 810073c:	e7fe      	b.n	810073c <MemManage_Handler>

0810073e <BusFault_Handler>:
 810073e:	e7fe      	b.n	810073e <BusFault_Handler>

08100740 <UsageFault_Handler>:
 8100740:	e7fe      	b.n	8100740 <UsageFault_Handler>

08100742 <SVC_Handler>:
 8100742:	4770      	bx	lr

08100744 <DebugMon_Handler>:
 8100744:	4770      	bx	lr

08100746 <PendSV_Handler>:
 8100746:	4770      	bx	lr

08100748 <SysTick_Handler>:
 8100748:	f000 b9fe 	b.w	8100b48 <HAL_IncTick>

0810074c <ADC_IRQHandler>:
 810074c:	4801      	ldr	r0, [pc, #4]	; (8100754 <ADC_IRQHandler+0x8>)
 810074e:	f000 ba2d 	b.w	8100bac <HAL_ADC_IRQHandler>
 8100752:	bf00      	nop
 8100754:	1000003c 	.word	0x1000003c

08100758 <TIM2_IRQHandler>:
 8100758:	4801      	ldr	r0, [pc, #4]	; (8100760 <TIM2_IRQHandler+0x8>)
 810075a:	f002 bd6c 	b.w	8103236 <HAL_TIM_IRQHandler>
 810075e:	bf00      	nop
 8100760:	100002c8 	.word	0x100002c8

08100764 <MX_TIM2_Init>:
 8100764:	b500      	push	{lr}
 8100766:	2210      	movs	r2, #16
 8100768:	b089      	sub	sp, #36	; 0x24
 810076a:	2100      	movs	r1, #0
 810076c:	eb0d 0002 	add.w	r0, sp, r2
 8100770:	f003 f9a4 	bl	8103abc <memset>
 8100774:	4815      	ldr	r0, [pc, #84]	; (81007cc <MX_TIM2_Init+0x68>)
 8100776:	2277      	movs	r2, #119	; 0x77
 8100778:	f04f 4180 	mov.w	r1, #1073741824	; 0x40000000
 810077c:	2300      	movs	r3, #0
 810077e:	e9c0 1200 	strd	r1, r2, [r0]
 8100782:	f242 720f 	movw	r2, #9999	; 0x270f
 8100786:	e9cd 3301 	strd	r3, r3, [sp, #4]
 810078a:	e9c0 2303 	strd	r2, r3, [r0, #12]
 810078e:	9303      	str	r3, [sp, #12]
 8100790:	6083      	str	r3, [r0, #8]
 8100792:	6183      	str	r3, [r0, #24]
 8100794:	f002 fe66 	bl	8103464 <HAL_TIM_Base_Init>
 8100798:	b108      	cbz	r0, 810079e <MX_TIM2_Init+0x3a>
 810079a:	f7ff ffb9 	bl	8100710 <Error_Handler>
 810079e:	f44f 5380 	mov.w	r3, #4096	; 0x1000
 81007a2:	480a      	ldr	r0, [pc, #40]	; (81007cc <MX_TIM2_Init+0x68>)
 81007a4:	9304      	str	r3, [sp, #16]
 81007a6:	a904      	add	r1, sp, #16
 81007a8:	f002 ff8e 	bl	81036c8 <HAL_TIM_ConfigClockSource>
 81007ac:	b108      	cbz	r0, 81007b2 <MX_TIM2_Init+0x4e>
 81007ae:	f7ff ffaf 	bl	8100710 <Error_Handler>
 81007b2:	2300      	movs	r3, #0
 81007b4:	4805      	ldr	r0, [pc, #20]	; (81007cc <MX_TIM2_Init+0x68>)
 81007b6:	9301      	str	r3, [sp, #4]
 81007b8:	a901      	add	r1, sp, #4
 81007ba:	9303      	str	r3, [sp, #12]
 81007bc:	f003 f8ce 	bl	810395c <HAL_TIMEx_MasterConfigSynchronization>
 81007c0:	b108      	cbz	r0, 81007c6 <MX_TIM2_Init+0x62>
 81007c2:	f7ff ffa5 	bl	8100710 <Error_Handler>
 81007c6:	b009      	add	sp, #36	; 0x24
 81007c8:	f85d fb04 	ldr.w	pc, [sp], #4
 81007cc:	100002c8 	.word	0x100002c8

081007d0 <MX_TIM3_Init>:
 81007d0:	b500      	push	{lr}
 81007d2:	2210      	movs	r2, #16
 81007d4:	b089      	sub	sp, #36	; 0x24
 81007d6:	2100      	movs	r1, #0
 81007d8:	eb0d 0002 	add.w	r0, sp, r2
 81007dc:	f003 f96e 	bl	8103abc <memset>
 81007e0:	4815      	ldr	r0, [pc, #84]	; (8100838 <MX_TIM3_Init+0x68>)
 81007e2:	4916      	ldr	r1, [pc, #88]	; (810083c <MX_TIM3_Init+0x6c>)
 81007e4:	2277      	movs	r2, #119	; 0x77
 81007e6:	2300      	movs	r3, #0
 81007e8:	e9c0 1200 	strd	r1, r2, [r0]
 81007ec:	2263      	movs	r2, #99	; 0x63
 81007ee:	e9cd 3301 	strd	r3, r3, [sp, #4]
 81007f2:	e9c0 2303 	strd	r2, r3, [r0, #12]
 81007f6:	9303      	str	r3, [sp, #12]
 81007f8:	6083      	str	r3, [r0, #8]
 81007fa:	6183      	str	r3, [r0, #24]
 81007fc:	f002 fe32 	bl	8103464 <HAL_TIM_Base_Init>
 8100800:	b108      	cbz	r0, 8100806 <MX_TIM3_Init+0x36>
 8100802:	f7ff ff85 	bl	8100710 <Error_Handler>
 8100806:	f44f 5380 	mov.w	r3, #4096	; 0x1000
 810080a:	480b      	ldr	r0, [pc, #44]	; (8100838 <MX_TIM3_Init+0x68>)
 810080c:	9304      	str	r3, [sp, #16]
 810080e:	a904      	add	r1, sp, #16
 8100810:	f002 ff5a 	bl	81036c8 <HAL_TIM_ConfigClockSource>
 8100814:	b108      	cbz	r0, 810081a <MX_TIM3_Init+0x4a>
 8100816:	f7ff ff7b 	bl	8100710 <Error_Handler>
 810081a:	2320      	movs	r3, #32
 810081c:	9301      	str	r3, [sp, #4]
 810081e:	4806      	ldr	r0, [pc, #24]	; (8100838 <MX_TIM3_Init+0x68>)
 8100820:	2300      	movs	r3, #0
 8100822:	a901      	add	r1, sp, #4
 8100824:	9303      	str	r3, [sp, #12]
 8100826:	f003 f899 	bl	810395c <HAL_TIMEx_MasterConfigSynchronization>
 810082a:	b108      	cbz	r0, 8100830 <MX_TIM3_Init+0x60>
 810082c:	f7ff ff70 	bl	8100710 <Error_Handler>
 8100830:	b009      	add	sp, #36	; 0x24
 8100832:	f85d fb04 	ldr.w	pc, [sp], #4
 8100836:	bf00      	nop
 8100838:	10000230 	.word	0x10000230
 810083c:	40000400 	.word	0x40000400

08100840 <HAL_TIM_Base_MspInit>:
 8100840:	b51f      	push	{r0, r1, r2, r3, r4, lr}
 8100842:	6803      	ldr	r3, [r0, #0]
 8100844:	4a1f      	ldr	r2, [pc, #124]	; (81008c4 <HAL_TIM_Base_MspInit+0x84>)
 8100846:	4293      	cmp	r3, r2
 8100848:	d10f      	bne.n	810086a <HAL_TIM_Base_MspInit+0x2a>
 810084a:	4b1f      	ldr	r3, [pc, #124]	; (81008c8 <HAL_TIM_Base_MspInit+0x88>)
 810084c:	f8d3 20f0 	ldr.w	r2, [r3, #240]	; 0xf0
 8100850:	f042 0201 	orr.w	r2, r2, #1
 8100854:	f8c3 20f0 	str.w	r2, [r3, #240]	; 0xf0
 8100858:	f8d3 30f0 	ldr.w	r3, [r3, #240]	; 0xf0
 810085c:	f003 0301 	and.w	r3, r3, #1
 8100860:	9301      	str	r3, [sp, #4]
 8100862:	9b01      	ldr	r3, [sp, #4]
 8100864:	b005      	add	sp, #20
 8100866:	f85d fb04 	ldr.w	pc, [sp], #4
 810086a:	f1b3 4f80 	cmp.w	r3, #1073741824	; 0x40000000
 810086e:	d117      	bne.n	81008a0 <HAL_TIM_Base_MspInit+0x60>
 8100870:	4b15      	ldr	r3, [pc, #84]	; (81008c8 <HAL_TIM_Base_MspInit+0x88>)
 8100872:	f8d3 20e8 	ldr.w	r2, [r3, #232]	; 0xe8
 8100876:	f042 0201 	orr.w	r2, r2, #1
 810087a:	f8c3 20e8 	str.w	r2, [r3, #232]	; 0xe8
 810087e:	f8d3 30e8 	ldr.w	r3, [r3, #232]	; 0xe8
 8100882:	2200      	movs	r2, #0
 8100884:	f003 0301 	and.w	r3, r3, #1
 8100888:	9302      	str	r3, [sp, #8]
 810088a:	4611      	mov	r1, r2
 810088c:	201c      	movs	r0, #28
 810088e:	9b02      	ldr	r3, [sp, #8]
 8100890:	f000 ffdc 	bl	810184c <HAL_NVIC_SetPriority>
 8100894:	201c      	movs	r0, #28
 8100896:	b005      	add	sp, #20
 8100898:	f85d eb04 	ldr.w	lr, [sp], #4
 810089c:	f001 b808 	b.w	81018b0 <HAL_NVIC_EnableIRQ>
 81008a0:	4a0a      	ldr	r2, [pc, #40]	; (81008cc <HAL_TIM_Base_MspInit+0x8c>)
 81008a2:	4293      	cmp	r3, r2
 81008a4:	d1de      	bne.n	8100864 <HAL_TIM_Base_MspInit+0x24>
 81008a6:	4b08      	ldr	r3, [pc, #32]	; (81008c8 <HAL_TIM_Base_MspInit+0x88>)
 81008a8:	f8d3 20e8 	ldr.w	r2, [r3, #232]	; 0xe8
 81008ac:	f042 0202 	orr.w	r2, r2, #2
 81008b0:	f8c3 20e8 	str.w	r2, [r3, #232]	; 0xe8
 81008b4:	f8d3 30e8 	ldr.w	r3, [r3, #232]	; 0xe8
 81008b8:	f003 0302 	and.w	r3, r3, #2
 81008bc:	9303      	str	r3, [sp, #12]
 81008be:	9b03      	ldr	r3, [sp, #12]
 81008c0:	e7d0      	b.n	8100864 <HAL_TIM_Base_MspInit+0x24>
 81008c2:	bf00      	nop
 81008c4:	40010000 	.word	0x40010000
 81008c8:	58024400 	.word	0x58024400
 81008cc:	40000400 	.word	0x40000400

081008d0 <HAL_TIM_MspPostInit>:
 81008d0:	b510      	push	{r4, lr}
 81008d2:	4604      	mov	r4, r0
 81008d4:	b086      	sub	sp, #24
 81008d6:	2214      	movs	r2, #20
 81008d8:	2100      	movs	r1, #0
 81008da:	a801      	add	r0, sp, #4
 81008dc:	f003 f8ee 	bl	8103abc <memset>
 81008e0:	6822      	ldr	r2, [r4, #0]
 81008e2:	4b10      	ldr	r3, [pc, #64]	; (8100924 <HAL_TIM_MspPostInit+0x54>)
 81008e4:	429a      	cmp	r2, r3
 81008e6:	d11a      	bne.n	810091e <HAL_TIM_MspPostInit+0x4e>
 81008e8:	4b0f      	ldr	r3, [pc, #60]	; (8100928 <HAL_TIM_MspPostInit+0x58>)
 81008ea:	4810      	ldr	r0, [pc, #64]	; (810092c <HAL_TIM_MspPostInit+0x5c>)
 81008ec:	f8d3 20e0 	ldr.w	r2, [r3, #224]	; 0xe0
 81008f0:	f042 0210 	orr.w	r2, r2, #16
 81008f4:	f8c3 20e0 	str.w	r2, [r3, #224]	; 0xe0
 81008f8:	f8d3 30e0 	ldr.w	r3, [r3, #224]	; 0xe0
 81008fc:	f003 0310 	and.w	r3, r3, #16
 8100900:	9300      	str	r3, [sp, #0]
 8100902:	9b00      	ldr	r3, [sp, #0]
 8100904:	f44f 7200 	mov.w	r2, #512	; 0x200
 8100908:	2302      	movs	r3, #2
 810090a:	e9cd 2301 	strd	r2, r3, [sp, #4]
 810090e:	2300      	movs	r3, #0
 8100910:	e9cd 3303 	strd	r3, r3, [sp, #12]
 8100914:	a901      	add	r1, sp, #4
 8100916:	2301      	movs	r3, #1
 8100918:	9305      	str	r3, [sp, #20]
 810091a:	f000 fff9 	bl	8101910 <HAL_GPIO_Init>
 810091e:	b006      	add	sp, #24
 8100920:	bd10      	pop	{r4, pc}
 8100922:	bf00      	nop
 8100924:	40010000 	.word	0x40010000
 8100928:	58024400 	.word	0x58024400
 810092c:	58021000 	.word	0x58021000

08100930 <MX_TIM1_Init>:
 8100930:	b510      	push	{r4, lr}
 8100932:	2210      	movs	r2, #16
 8100934:	b09a      	sub	sp, #104	; 0x68
 8100936:	2400      	movs	r4, #0
 8100938:	2100      	movs	r1, #0
 810093a:	eb0d 0002 	add.w	r0, sp, r2
 810093e:	f003 f8bd 	bl	8103abc <memset>
 8100942:	221c      	movs	r2, #28
 8100944:	4621      	mov	r1, r4
 8100946:	a808      	add	r0, sp, #32
 8100948:	e9cd 4401 	strd	r4, r4, [sp, #4]
 810094c:	9403      	str	r4, [sp, #12]
 810094e:	f003 f8b5 	bl	8103abc <memset>
 8100952:	222c      	movs	r2, #44	; 0x2c
 8100954:	4621      	mov	r1, r4
 8100956:	a80f      	add	r0, sp, #60	; 0x3c
 8100958:	f003 f8b0 	bl	8103abc <memset>
 810095c:	482b      	ldr	r0, [pc, #172]	; (8100a0c <MX_TIM1_Init+0xdc>)
 810095e:	4a2c      	ldr	r2, [pc, #176]	; (8100a10 <MX_TIM1_Init+0xe0>)
 8100960:	6084      	str	r4, [r0, #8]
 8100962:	2377      	movs	r3, #119	; 0x77
 8100964:	e9c0 2300 	strd	r2, r3, [r0]
 8100968:	2364      	movs	r3, #100	; 0x64
 810096a:	e9c0 3403 	strd	r3, r4, [r0, #12]
 810096e:	e9c0 4405 	strd	r4, r4, [r0, #20]
 8100972:	f002 fd77 	bl	8103464 <HAL_TIM_Base_Init>
 8100976:	b108      	cbz	r0, 810097c <MX_TIM1_Init+0x4c>
 8100978:	f7ff feca 	bl	8100710 <Error_Handler>
 810097c:	f44f 5380 	mov.w	r3, #4096	; 0x1000
 8100980:	4822      	ldr	r0, [pc, #136]	; (8100a0c <MX_TIM1_Init+0xdc>)
 8100982:	9304      	str	r3, [sp, #16]
 8100984:	a904      	add	r1, sp, #16
 8100986:	f002 fe9f 	bl	81036c8 <HAL_TIM_ConfigClockSource>
 810098a:	b108      	cbz	r0, 8100990 <MX_TIM1_Init+0x60>
 810098c:	f7ff fec0 	bl	8100710 <Error_Handler>
 8100990:	481e      	ldr	r0, [pc, #120]	; (8100a0c <MX_TIM1_Init+0xdc>)
 8100992:	f002 fd97 	bl	81034c4 <HAL_TIM_PWM_Init>
 8100996:	b108      	cbz	r0, 810099c <MX_TIM1_Init+0x6c>
 8100998:	f7ff feba 	bl	8100710 <Error_Handler>
 810099c:	2400      	movs	r4, #0
 810099e:	481b      	ldr	r0, [pc, #108]	; (8100a0c <MX_TIM1_Init+0xdc>)
 81009a0:	9403      	str	r4, [sp, #12]
 81009a2:	a901      	add	r1, sp, #4
 81009a4:	e9cd 4401 	strd	r4, r4, [sp, #4]
 81009a8:	f002 ffd8 	bl	810395c <HAL_TIMEx_MasterConfigSynchronization>
 81009ac:	b108      	cbz	r0, 81009b2 <MX_TIM1_Init+0x82>
 81009ae:	f7ff feaf 	bl	8100710 <Error_Handler>
 81009b2:	2360      	movs	r3, #96	; 0x60
 81009b4:	e9cd 3408 	strd	r3, r4, [sp, #32]
 81009b8:	4814      	ldr	r0, [pc, #80]	; (8100a0c <MX_TIM1_Init+0xdc>)
 81009ba:	940e      	str	r4, [sp, #56]	; 0x38
 81009bc:	2304      	movs	r3, #4
 81009be:	2200      	movs	r2, #0
 81009c0:	a908      	add	r1, sp, #32
 81009c2:	e9cd 440a 	strd	r4, r4, [sp, #40]	; 0x28
 81009c6:	e9cd 340c 	strd	r3, r4, [sp, #48]	; 0x30
 81009ca:	f002 fdf1 	bl	81035b0 <HAL_TIM_PWM_ConfigChannel>
 81009ce:	b108      	cbz	r0, 81009d4 <MX_TIM1_Init+0xa4>
 81009d0:	f7ff fe9e 	bl	8100710 <Error_Handler>
 81009d4:	2300      	movs	r3, #0
 81009d6:	f44f 5200 	mov.w	r2, #8192	; 0x2000
 81009da:	e9cd 2314 	strd	r2, r3, [sp, #80]	; 0x50
 81009de:	480b      	ldr	r0, [pc, #44]	; (8100a0c <MX_TIM1_Init+0xdc>)
 81009e0:	9313      	str	r3, [sp, #76]	; 0x4c
 81009e2:	f04f 7200 	mov.w	r2, #33554432	; 0x2000000
 81009e6:	a90f      	add	r1, sp, #60	; 0x3c
 81009e8:	e9cd 330f 	strd	r3, r3, [sp, #60]	; 0x3c
 81009ec:	e9cd 3311 	strd	r3, r3, [sp, #68]	; 0x44
 81009f0:	e9cd 2317 	strd	r2, r3, [sp, #92]	; 0x5c
 81009f4:	9316      	str	r3, [sp, #88]	; 0x58
 81009f6:	9319      	str	r3, [sp, #100]	; 0x64
 81009f8:	f002 fff6 	bl	81039e8 <HAL_TIMEx_ConfigBreakDeadTime>
 81009fc:	b108      	cbz	r0, 8100a02 <MX_TIM1_Init+0xd2>
 81009fe:	f7ff fe87 	bl	8100710 <Error_Handler>
 8100a02:	4802      	ldr	r0, [pc, #8]	; (8100a0c <MX_TIM1_Init+0xdc>)
 8100a04:	f7ff ff64 	bl	81008d0 <HAL_TIM_MspPostInit>
 8100a08:	b01a      	add	sp, #104	; 0x68
 8100a0a:	bd10      	pop	{r4, pc}
 8100a0c:	1000027c 	.word	0x1000027c
 8100a10:	40010000 	.word	0x40010000

08100a14 <Reset_Handler>:
 8100a14:	f8df d034 	ldr.w	sp, [pc, #52]	; 8100a4c <LoopFillZerobss+0xe>
 8100a18:	f7ff fc5e 	bl	81002d8 <SystemInit>
 8100a1c:	480c      	ldr	r0, [pc, #48]	; (8100a50 <LoopFillZerobss+0x12>)
 8100a1e:	490d      	ldr	r1, [pc, #52]	; (8100a54 <LoopFillZerobss+0x16>)
 8100a20:	4a0d      	ldr	r2, [pc, #52]	; (8100a58 <LoopFillZerobss+0x1a>)
 8100a22:	2300      	movs	r3, #0
 8100a24:	e002      	b.n	8100a2c <LoopCopyDataInit>

08100a26 <CopyDataInit>:
 8100a26:	58d4      	ldr	r4, [r2, r3]
 8100a28:	50c4      	str	r4, [r0, r3]
 8100a2a:	3304      	adds	r3, #4

08100a2c <LoopCopyDataInit>:
 8100a2c:	18c4      	adds	r4, r0, r3
 8100a2e:	428c      	cmp	r4, r1
 8100a30:	d3f9      	bcc.n	8100a26 <CopyDataInit>
 8100a32:	4a0a      	ldr	r2, [pc, #40]	; (8100a5c <LoopFillZerobss+0x1e>)
 8100a34:	4c0a      	ldr	r4, [pc, #40]	; (8100a60 <LoopFillZerobss+0x22>)
 8100a36:	2300      	movs	r3, #0
 8100a38:	e001      	b.n	8100a3e <LoopFillZerobss>

08100a3a <FillZerobss>:
 8100a3a:	6013      	str	r3, [r2, #0]
 8100a3c:	3204      	adds	r2, #4

08100a3e <LoopFillZerobss>:
 8100a3e:	42a2      	cmp	r2, r4
 8100a40:	d3fb      	bcc.n	8100a3a <FillZerobss>
 8100a42:	f003 f817 	bl	8103a74 <__libc_init_array>
 8100a46:	f7ff fdc9 	bl	81005dc <main>
 8100a4a:	4770      	bx	lr
 8100a4c:	10048000 	.word	0x10048000
 8100a50:	10000000 	.word	0x10000000
 8100a54:	10000010 	.word	0x10000010
 8100a58:	08103afc 	.word	0x08103afc
 8100a5c:	10000010 	.word	0x10000010
 8100a60:	10000318 	.word	0x10000318

08100a64 <ADC3_IRQHandler>:
 8100a64:	e7fe      	b.n	8100a64 <ADC3_IRQHandler>
	...

08100a68 <HAL_InitTick>:
 8100a68:	b538      	push	{r3, r4, r5, lr}
 8100a6a:	4b0f      	ldr	r3, [pc, #60]	; (8100aa8 <HAL_InitTick+0x40>)
 8100a6c:	4605      	mov	r5, r0
 8100a6e:	7818      	ldrb	r0, [r3, #0]
 8100a70:	b908      	cbnz	r0, 8100a76 <HAL_InitTick+0xe>
 8100a72:	2001      	movs	r0, #1
 8100a74:	bd38      	pop	{r3, r4, r5, pc}
 8100a76:	4a0d      	ldr	r2, [pc, #52]	; (8100aac <HAL_InitTick+0x44>)
 8100a78:	f44f 737a 	mov.w	r3, #1000	; 0x3e8
 8100a7c:	fbb3 f3f0 	udiv	r3, r3, r0
 8100a80:	6810      	ldr	r0, [r2, #0]
 8100a82:	fbb0 f0f3 	udiv	r0, r0, r3
 8100a86:	f000 ff21 	bl	81018cc <HAL_SYSTICK_Config>
 8100a8a:	4604      	mov	r4, r0
 8100a8c:	2800      	cmp	r0, #0
 8100a8e:	d1f0      	bne.n	8100a72 <HAL_InitTick+0xa>
 8100a90:	2d0f      	cmp	r5, #15
 8100a92:	d8ee      	bhi.n	8100a72 <HAL_InitTick+0xa>
 8100a94:	4602      	mov	r2, r0
 8100a96:	4629      	mov	r1, r5
 8100a98:	f04f 30ff 	mov.w	r0, #4294967295
 8100a9c:	f000 fed6 	bl	810184c <HAL_NVIC_SetPriority>
 8100aa0:	4b03      	ldr	r3, [pc, #12]	; (8100ab0 <HAL_InitTick+0x48>)
 8100aa2:	4620      	mov	r0, r4
 8100aa4:	601d      	str	r5, [r3, #0]
 8100aa6:	e7e5      	b.n	8100a74 <HAL_InitTick+0xc>
 8100aa8:	10000008 	.word	0x10000008
 8100aac:	10000000 	.word	0x10000000
 8100ab0:	1000000c 	.word	0x1000000c

08100ab4 <HAL_Init>:
 8100ab4:	b513      	push	{r0, r1, r4, lr}
 8100ab6:	4c1f      	ldr	r4, [pc, #124]	; (8100b34 <HAL_Init+0x80>)
 8100ab8:	4a1f      	ldr	r2, [pc, #124]	; (8100b38 <HAL_Init+0x84>)
 8100aba:	f8d4 30d8 	ldr.w	r3, [r4, #216]	; 0xd8
 8100abe:	f443 4380 	orr.w	r3, r3, #16384	; 0x4000
 8100ac2:	f8c4 30d8 	str.w	r3, [r4, #216]	; 0xd8
 8100ac6:	f8d4 30d8 	ldr.w	r3, [r4, #216]	; 0xd8
 8100aca:	f403 4380 	and.w	r3, r3, #16384	; 0x4000
 8100ace:	9301      	str	r3, [sp, #4]
 8100ad0:	9b01      	ldr	r3, [sp, #4]
 8100ad2:	6813      	ldr	r3, [r2, #0]
 8100ad4:	f423 237f 	bic.w	r3, r3, #1044480	; 0xff000
 8100ad8:	f423 6370 	bic.w	r3, r3, #3840	; 0xf00
 8100adc:	f443 4301 	orr.w	r3, r3, #33024	; 0x8100
 8100ae0:	6013      	str	r3, [r2, #0]
 8100ae2:	6813      	ldr	r3, [r2, #0]
 8100ae4:	f043 0301 	orr.w	r3, r3, #1
 8100ae8:	6013      	str	r3, [r2, #0]
 8100aea:	2003      	movs	r0, #3
 8100aec:	f000 fe9c 	bl	8101828 <HAL_NVIC_SetPriorityGrouping>
 8100af0:	f001 f84c 	bl	8101b8c <HAL_RCC_GetSysClockFreq>
 8100af4:	69a2      	ldr	r2, [r4, #24]
 8100af6:	69a3      	ldr	r3, [r4, #24]
 8100af8:	4910      	ldr	r1, [pc, #64]	; (8100b3c <HAL_Init+0x88>)
 8100afa:	f3c2 2203 	ubfx	r2, r2, #8, #4
 8100afe:	f003 030f 	and.w	r3, r3, #15
 8100b02:	5c8a      	ldrb	r2, [r1, r2]
 8100b04:	5ccb      	ldrb	r3, [r1, r3]
 8100b06:	f002 021f 	and.w	r2, r2, #31
 8100b0a:	40d0      	lsrs	r0, r2
 8100b0c:	f003 031f 	and.w	r3, r3, #31
 8100b10:	40d8      	lsrs	r0, r3
 8100b12:	4b0b      	ldr	r3, [pc, #44]	; (8100b40 <HAL_Init+0x8c>)
 8100b14:	6018      	str	r0, [r3, #0]
 8100b16:	4b0b      	ldr	r3, [pc, #44]	; (8100b44 <HAL_Init+0x90>)
 8100b18:	6018      	str	r0, [r3, #0]
 8100b1a:	2000      	movs	r0, #0
 8100b1c:	f7ff ffa4 	bl	8100a68 <HAL_InitTick>
 8100b20:	4604      	mov	r4, r0
 8100b22:	b920      	cbnz	r0, 8100b2e <HAL_Init+0x7a>
 8100b24:	f7ff fdf6 	bl	8100714 <HAL_MspInit>
 8100b28:	4620      	mov	r0, r4
 8100b2a:	b002      	add	sp, #8
 8100b2c:	bd10      	pop	{r4, pc}
 8100b2e:	2401      	movs	r4, #1
 8100b30:	e7fa      	b.n	8100b28 <HAL_Init+0x74>
 8100b32:	bf00      	nop
 8100b34:	58024400 	.word	0x58024400
 8100b38:	40024400 	.word	0x40024400
 8100b3c:	08103ae4 	.word	0x08103ae4
 8100b40:	10000004 	.word	0x10000004
 8100b44:	10000000 	.word	0x10000000

08100b48 <HAL_IncTick>:
 8100b48:	4a03      	ldr	r2, [pc, #12]	; (8100b58 <HAL_IncTick+0x10>)
 8100b4a:	4b04      	ldr	r3, [pc, #16]	; (8100b5c <HAL_IncTick+0x14>)
 8100b4c:	6811      	ldr	r1, [r2, #0]
 8100b4e:	781b      	ldrb	r3, [r3, #0]
 8100b50:	440b      	add	r3, r1
 8100b52:	6013      	str	r3, [r2, #0]
 8100b54:	4770      	bx	lr
 8100b56:	bf00      	nop
 8100b58:	10000314 	.word	0x10000314
 8100b5c:	10000008 	.word	0x10000008

08100b60 <HAL_GetTick>:
 8100b60:	4b01      	ldr	r3, [pc, #4]	; (8100b68 <HAL_GetTick+0x8>)
 8100b62:	6818      	ldr	r0, [r3, #0]
 8100b64:	4770      	bx	lr
 8100b66:	bf00      	nop
 8100b68:	10000314 	.word	0x10000314

08100b6c <HAL_GetREVID>:
 8100b6c:	4b01      	ldr	r3, [pc, #4]	; (8100b74 <HAL_GetREVID+0x8>)
 8100b6e:	6818      	ldr	r0, [r3, #0]
 8100b70:	0c00      	lsrs	r0, r0, #16
 8100b72:	4770      	bx	lr
 8100b74:	5c001000 	.word	0x5c001000

08100b78 <LL_ADC_SetChannelSamplingTime>:
 8100b78:	b530      	push	{r4, r5, lr}
 8100b7a:	0dcc      	lsrs	r4, r1, #23
 8100b7c:	f004 0404 	and.w	r4, r4, #4
 8100b80:	3014      	adds	r0, #20
 8100b82:	f3c1 5104 	ubfx	r1, r1, #20, #5
 8100b86:	5823      	ldr	r3, [r4, r0]
 8100b88:	2507      	movs	r5, #7
 8100b8a:	408d      	lsls	r5, r1
 8100b8c:	ea23 0305 	bic.w	r3, r3, r5
 8100b90:	fa02 f101 	lsl.w	r1, r2, r1
 8100b94:	430b      	orrs	r3, r1
 8100b96:	5023      	str	r3, [r4, r0]
 8100b98:	bd30      	pop	{r4, r5, pc}

08100b9a <LL_ADC_REG_IsConversionOngoing>:
 8100b9a:	6880      	ldr	r0, [r0, #8]
 8100b9c:	f3c0 0080 	ubfx	r0, r0, #2, #1
 8100ba0:	4770      	bx	lr

08100ba2 <HAL_ADC_GetValue>:
 8100ba2:	6803      	ldr	r3, [r0, #0]
 8100ba4:	6c18      	ldr	r0, [r3, #64]	; 0x40
 8100ba6:	4770      	bx	lr

08100ba8 <HAL_ADC_LevelOutOfWindowCallback>:
 8100ba8:	4770      	bx	lr

08100baa <HAL_ADC_ErrorCallback>:
 8100baa:	4770      	bx	lr

08100bac <HAL_ADC_IRQHandler>:
 8100bac:	b5f8      	push	{r3, r4, r5, r6, r7, lr}
 8100bae:	6802      	ldr	r2, [r0, #0]
 8100bb0:	4b96      	ldr	r3, [pc, #600]	; (8100e0c <HAL_ADC_IRQHandler+0x260>)
 8100bb2:	6815      	ldr	r5, [r2, #0]
 8100bb4:	6856      	ldr	r6, [r2, #4]
 8100bb6:	429a      	cmp	r2, r3
 8100bb8:	4604      	mov	r4, r0
 8100bba:	f000 80f9 	beq.w	8100db0 <HAL_ADC_IRQHandler+0x204>
 8100bbe:	4894      	ldr	r0, [pc, #592]	; (8100e10 <HAL_ADC_IRQHandler+0x264>)
 8100bc0:	4994      	ldr	r1, [pc, #592]	; (8100e14 <HAL_ADC_IRQHandler+0x268>)
 8100bc2:	f503 7340 	add.w	r3, r3, #768	; 0x300
 8100bc6:	4282      	cmp	r2, r0
 8100bc8:	bf18      	it	ne
 8100bca:	460b      	movne	r3, r1
 8100bcc:	689f      	ldr	r7, [r3, #8]
 8100bce:	07aa      	lsls	r2, r5, #30
 8100bd0:	f007 071f 	and.w	r7, r7, #31
 8100bd4:	d50e      	bpl.n	8100bf4 <HAL_ADC_IRQHandler+0x48>
 8100bd6:	07b3      	lsls	r3, r6, #30
 8100bd8:	d50c      	bpl.n	8100bf4 <HAL_ADC_IRQHandler+0x48>
 8100bda:	6d63      	ldr	r3, [r4, #84]	; 0x54
 8100bdc:	06d8      	lsls	r0, r3, #27
 8100bde:	bf5e      	ittt	pl
 8100be0:	6d63      	ldrpl	r3, [r4, #84]	; 0x54
 8100be2:	f443 6300 	orrpl.w	r3, r3, #2048	; 0x800
 8100be6:	6563      	strpl	r3, [r4, #84]	; 0x54
 8100be8:	4620      	mov	r0, r4
 8100bea:	f000 fd95 	bl	8101718 <HAL_ADCEx_EndOfSamplingCallback>
 8100bee:	6823      	ldr	r3, [r4, #0]
 8100bf0:	2202      	movs	r2, #2
 8100bf2:	601a      	str	r2, [r3, #0]
 8100bf4:	0769      	lsls	r1, r5, #29
 8100bf6:	d501      	bpl.n	8100bfc <HAL_ADC_IRQHandler+0x50>
 8100bf8:	0772      	lsls	r2, r6, #29
 8100bfa:	d403      	bmi.n	8100c04 <HAL_ADC_IRQHandler+0x58>
 8100bfc:	072b      	lsls	r3, r5, #28
 8100bfe:	d532      	bpl.n	8100c66 <HAL_ADC_IRQHandler+0xba>
 8100c00:	0730      	lsls	r0, r6, #28
 8100c02:	d530      	bpl.n	8100c66 <HAL_ADC_IRQHandler+0xba>
 8100c04:	6d63      	ldr	r3, [r4, #84]	; 0x54
 8100c06:	6820      	ldr	r0, [r4, #0]
 8100c08:	06d9      	lsls	r1, r3, #27
 8100c0a:	bf5e      	ittt	pl
 8100c0c:	6d63      	ldrpl	r3, [r4, #84]	; 0x54
 8100c0e:	f443 7300 	orrpl.w	r3, r3, #512	; 0x200
 8100c12:	6563      	strpl	r3, [r4, #84]	; 0x54
 8100c14:	68c3      	ldr	r3, [r0, #12]
 8100c16:	f413 6f40 	tst.w	r3, #3072	; 0xc00
 8100c1a:	d11e      	bne.n	8100c5a <HAL_ADC_IRQHandler+0xae>
 8100c1c:	4b7c      	ldr	r3, [pc, #496]	; (8100e10 <HAL_ADC_IRQHandler+0x264>)
 8100c1e:	4298      	cmp	r0, r3
 8100c20:	f000 80e8 	beq.w	8100df4 <HAL_ADC_IRQHandler+0x248>
 8100c24:	68c3      	ldr	r3, [r0, #12]
 8100c26:	049a      	lsls	r2, r3, #18
 8100c28:	d417      	bmi.n	8100c5a <HAL_ADC_IRQHandler+0xae>
 8100c2a:	6803      	ldr	r3, [r0, #0]
 8100c2c:	071b      	lsls	r3, r3, #28
 8100c2e:	d514      	bpl.n	8100c5a <HAL_ADC_IRQHandler+0xae>
 8100c30:	f7ff ffb3 	bl	8100b9a <LL_ADC_REG_IsConversionOngoing>
 8100c34:	2800      	cmp	r0, #0
 8100c36:	f040 80bd 	bne.w	8100db4 <HAL_ADC_IRQHandler+0x208>
 8100c3a:	6822      	ldr	r2, [r4, #0]
 8100c3c:	6853      	ldr	r3, [r2, #4]
 8100c3e:	f023 030c 	bic.w	r3, r3, #12
 8100c42:	6053      	str	r3, [r2, #4]
 8100c44:	6d63      	ldr	r3, [r4, #84]	; 0x54
 8100c46:	f423 7380 	bic.w	r3, r3, #256	; 0x100
 8100c4a:	6563      	str	r3, [r4, #84]	; 0x54
 8100c4c:	6d63      	ldr	r3, [r4, #84]	; 0x54
 8100c4e:	04d8      	lsls	r0, r3, #19
 8100c50:	d403      	bmi.n	8100c5a <HAL_ADC_IRQHandler+0xae>
 8100c52:	6d63      	ldr	r3, [r4, #84]	; 0x54
 8100c54:	f043 0301 	orr.w	r3, r3, #1
 8100c58:	6563      	str	r3, [r4, #84]	; 0x54
 8100c5a:	4620      	mov	r0, r4
 8100c5c:	f7ff fc6c 	bl	8100538 <HAL_ADC_ConvCpltCallback>
 8100c60:	6823      	ldr	r3, [r4, #0]
 8100c62:	220c      	movs	r2, #12
 8100c64:	601a      	str	r2, [r3, #0]
 8100c66:	06a9      	lsls	r1, r5, #26
 8100c68:	d501      	bpl.n	8100c6e <HAL_ADC_IRQHandler+0xc2>
 8100c6a:	06b2      	lsls	r2, r6, #26
 8100c6c:	d403      	bmi.n	8100c76 <HAL_ADC_IRQHandler+0xca>
 8100c6e:	066b      	lsls	r3, r5, #25
 8100c70:	d538      	bpl.n	8100ce4 <HAL_ADC_IRQHandler+0x138>
 8100c72:	0670      	lsls	r0, r6, #25
 8100c74:	d536      	bpl.n	8100ce4 <HAL_ADC_IRQHandler+0x138>
 8100c76:	6d63      	ldr	r3, [r4, #84]	; 0x54
 8100c78:	4865      	ldr	r0, [pc, #404]	; (8100e10 <HAL_ADC_IRQHandler+0x264>)
 8100c7a:	06d9      	lsls	r1, r3, #27
 8100c7c:	bf5e      	ittt	pl
 8100c7e:	6d63      	ldrpl	r3, [r4, #84]	; 0x54
 8100c80:	f443 5300 	orrpl.w	r3, r3, #8192	; 0x2000
 8100c84:	6563      	strpl	r3, [r4, #84]	; 0x54
 8100c86:	6823      	ldr	r3, [r4, #0]
 8100c88:	6cd9      	ldr	r1, [r3, #76]	; 0x4c
 8100c8a:	68da      	ldr	r2, [r3, #12]
 8100c8c:	4283      	cmp	r3, r0
 8100c8e:	f401 71c0 	and.w	r1, r1, #384	; 0x180
 8100c92:	d104      	bne.n	8100c9e <HAL_ADC_IRQHandler+0xf2>
 8100c94:	b11f      	cbz	r7, 8100c9e <HAL_ADC_IRQHandler+0xf2>
 8100c96:	1fb8      	subs	r0, r7, #6
 8100c98:	2801      	cmp	r0, #1
 8100c9a:	f200 8094 	bhi.w	8100dc6 <HAL_ADC_IRQHandler+0x21a>
 8100c9e:	68d8      	ldr	r0, [r3, #12]
 8100ca0:	b129      	cbz	r1, 8100cae <HAL_ADC_IRQHandler+0x102>
 8100ca2:	495d      	ldr	r1, [pc, #372]	; (8100e18 <HAL_ADC_IRQHandler+0x26c>)
 8100ca4:	f402 6240 	and.w	r2, r2, #3072	; 0xc00
 8100ca8:	4001      	ands	r1, r0
 8100caa:	430a      	orrs	r2, r1
 8100cac:	d114      	bne.n	8100cd8 <HAL_ADC_IRQHandler+0x12c>
 8100cae:	681a      	ldr	r2, [r3, #0]
 8100cb0:	0652      	lsls	r2, r2, #25
 8100cb2:	d511      	bpl.n	8100cd8 <HAL_ADC_IRQHandler+0x12c>
 8100cb4:	0281      	lsls	r1, r0, #10
 8100cb6:	d40f      	bmi.n	8100cd8 <HAL_ADC_IRQHandler+0x12c>
 8100cb8:	689a      	ldr	r2, [r3, #8]
 8100cba:	0712      	lsls	r2, r2, #28
 8100cbc:	f100 8086 	bmi.w	8100dcc <HAL_ADC_IRQHandler+0x220>
 8100cc0:	685a      	ldr	r2, [r3, #4]
 8100cc2:	f022 0260 	bic.w	r2, r2, #96	; 0x60
 8100cc6:	605a      	str	r2, [r3, #4]
 8100cc8:	6d63      	ldr	r3, [r4, #84]	; 0x54
 8100cca:	f423 5380 	bic.w	r3, r3, #4096	; 0x1000
 8100cce:	6563      	str	r3, [r4, #84]	; 0x54
 8100cd0:	6d63      	ldr	r3, [r4, #84]	; 0x54
 8100cd2:	05d8      	lsls	r0, r3, #23
 8100cd4:	f140 8083 	bpl.w	8100dde <HAL_ADC_IRQHandler+0x232>
 8100cd8:	4620      	mov	r0, r4
 8100cda:	f000 fd19 	bl	8101710 <HAL_ADCEx_InjectedConvCpltCallback>
 8100cde:	6823      	ldr	r3, [r4, #0]
 8100ce0:	2260      	movs	r2, #96	; 0x60
 8100ce2:	601a      	str	r2, [r3, #0]
 8100ce4:	0629      	lsls	r1, r5, #24
 8100ce6:	d50b      	bpl.n	8100d00 <HAL_ADC_IRQHandler+0x154>
 8100ce8:	0632      	lsls	r2, r6, #24
 8100cea:	d509      	bpl.n	8100d00 <HAL_ADC_IRQHandler+0x154>
 8100cec:	6d63      	ldr	r3, [r4, #84]	; 0x54
 8100cee:	f443 3380 	orr.w	r3, r3, #65536	; 0x10000
 8100cf2:	6563      	str	r3, [r4, #84]	; 0x54
 8100cf4:	4620      	mov	r0, r4
 8100cf6:	f7ff ff57 	bl	8100ba8 <HAL_ADC_LevelOutOfWindowCallback>
 8100cfa:	6823      	ldr	r3, [r4, #0]
 8100cfc:	2280      	movs	r2, #128	; 0x80
 8100cfe:	601a      	str	r2, [r3, #0]
 8100d00:	05eb      	lsls	r3, r5, #23
 8100d02:	d50c      	bpl.n	8100d1e <HAL_ADC_IRQHandler+0x172>
 8100d04:	05f0      	lsls	r0, r6, #23
 8100d06:	d50a      	bpl.n	8100d1e <HAL_ADC_IRQHandler+0x172>
 8100d08:	6d63      	ldr	r3, [r4, #84]	; 0x54
 8100d0a:	f443 3300 	orr.w	r3, r3, #131072	; 0x20000
 8100d0e:	6563      	str	r3, [r4, #84]	; 0x54
 8100d10:	4620      	mov	r0, r4
 8100d12:	f000 fcff 	bl	8101714 <HAL_ADCEx_LevelOutOfWindow2Callback>
 8100d16:	6823      	ldr	r3, [r4, #0]
 8100d18:	f44f 7280 	mov.w	r2, #256	; 0x100
 8100d1c:	601a      	str	r2, [r3, #0]
 8100d1e:	05a9      	lsls	r1, r5, #22
 8100d20:	d50c      	bpl.n	8100d3c <HAL_ADC_IRQHandler+0x190>
 8100d22:	05b2      	lsls	r2, r6, #22
 8100d24:	d50a      	bpl.n	8100d3c <HAL_ADC_IRQHandler+0x190>
 8100d26:	6d63      	ldr	r3, [r4, #84]	; 0x54
 8100d28:	f443 2380 	orr.w	r3, r3, #262144	; 0x40000
 8100d2c:	6563      	str	r3, [r4, #84]	; 0x54
 8100d2e:	4620      	mov	r0, r4
 8100d30:	f000 fcf1 	bl	8101716 <HAL_ADCEx_LevelOutOfWindow3Callback>
 8100d34:	6823      	ldr	r3, [r4, #0]
 8100d36:	f44f 7200 	mov.w	r2, #512	; 0x200
 8100d3a:	601a      	str	r2, [r3, #0]
 8100d3c:	06eb      	lsls	r3, r5, #27
 8100d3e:	d522      	bpl.n	8100d86 <HAL_ADC_IRQHandler+0x1da>
 8100d40:	06f0      	lsls	r0, r6, #27
 8100d42:	d520      	bpl.n	8100d86 <HAL_ADC_IRQHandler+0x1da>
 8100d44:	6b23      	ldr	r3, [r4, #48]	; 0x30
 8100d46:	b183      	cbz	r3, 8100d6a <HAL_ADC_IRQHandler+0x1be>
 8100d48:	6822      	ldr	r2, [r4, #0]
 8100d4a:	2f00      	cmp	r7, #0
 8100d4c:	d04e      	beq.n	8100dec <HAL_ADC_IRQHandler+0x240>
 8100d4e:	4b2f      	ldr	r3, [pc, #188]	; (8100e0c <HAL_ADC_IRQHandler+0x260>)
 8100d50:	429a      	cmp	r2, r3
 8100d52:	d049      	beq.n	8100de8 <HAL_ADC_IRQHandler+0x23c>
 8100d54:	482e      	ldr	r0, [pc, #184]	; (8100e10 <HAL_ADC_IRQHandler+0x264>)
 8100d56:	492f      	ldr	r1, [pc, #188]	; (8100e14 <HAL_ADC_IRQHandler+0x268>)
 8100d58:	f503 7340 	add.w	r3, r3, #768	; 0x300
 8100d5c:	4282      	cmp	r2, r0
 8100d5e:	bf18      	it	ne
 8100d60:	460b      	movne	r3, r1
 8100d62:	689b      	ldr	r3, [r3, #8]
 8100d64:	f413 4f40 	tst.w	r3, #49152	; 0xc000
 8100d68:	d00a      	beq.n	8100d80 <HAL_ADC_IRQHandler+0x1d4>
 8100d6a:	6d63      	ldr	r3, [r4, #84]	; 0x54
 8100d6c:	f443 6380 	orr.w	r3, r3, #1024	; 0x400
 8100d70:	6563      	str	r3, [r4, #84]	; 0x54
 8100d72:	6da3      	ldr	r3, [r4, #88]	; 0x58
 8100d74:	f043 0302 	orr.w	r3, r3, #2
 8100d78:	65a3      	str	r3, [r4, #88]	; 0x58
 8100d7a:	4620      	mov	r0, r4
 8100d7c:	f7ff ff15 	bl	8100baa <HAL_ADC_ErrorCallback>
 8100d80:	6823      	ldr	r3, [r4, #0]
 8100d82:	2210      	movs	r2, #16
 8100d84:	601a      	str	r2, [r3, #0]
 8100d86:	0569      	lsls	r1, r5, #21
 8100d88:	d53f      	bpl.n	8100e0a <HAL_ADC_IRQHandler+0x25e>
 8100d8a:	0572      	lsls	r2, r6, #21
 8100d8c:	d53d      	bpl.n	8100e0a <HAL_ADC_IRQHandler+0x25e>
 8100d8e:	6d63      	ldr	r3, [r4, #84]	; 0x54
 8100d90:	f443 4380 	orr.w	r3, r3, #16384	; 0x4000
 8100d94:	6563      	str	r3, [r4, #84]	; 0x54
 8100d96:	6da3      	ldr	r3, [r4, #88]	; 0x58
 8100d98:	f043 0308 	orr.w	r3, r3, #8
 8100d9c:	65a3      	str	r3, [r4, #88]	; 0x58
 8100d9e:	6823      	ldr	r3, [r4, #0]
 8100da0:	f44f 6280 	mov.w	r2, #1024	; 0x400
 8100da4:	601a      	str	r2, [r3, #0]
 8100da6:	4620      	mov	r0, r4
 8100da8:	e8bd 40f8 	ldmia.w	sp!, {r3, r4, r5, r6, r7, lr}
 8100dac:	f000 bcb1 	b.w	8101712 <HAL_ADCEx_InjectedQueueOverflowCallback>
 8100db0:	4b1a      	ldr	r3, [pc, #104]	; (8100e1c <HAL_ADC_IRQHandler+0x270>)
 8100db2:	e70b      	b.n	8100bcc <HAL_ADC_IRQHandler+0x20>
 8100db4:	6d63      	ldr	r3, [r4, #84]	; 0x54
 8100db6:	f043 0310 	orr.w	r3, r3, #16
 8100dba:	6563      	str	r3, [r4, #84]	; 0x54
 8100dbc:	6da3      	ldr	r3, [r4, #88]	; 0x58
 8100dbe:	f043 0301 	orr.w	r3, r3, #1
 8100dc2:	65a3      	str	r3, [r4, #88]	; 0x58
 8100dc4:	e749      	b.n	8100c5a <HAL_ADC_IRQHandler+0xae>
 8100dc6:	4811      	ldr	r0, [pc, #68]	; (8100e0c <HAL_ADC_IRQHandler+0x260>)
 8100dc8:	68c0      	ldr	r0, [r0, #12]
 8100dca:	e769      	b.n	8100ca0 <HAL_ADC_IRQHandler+0xf4>
 8100dcc:	6d63      	ldr	r3, [r4, #84]	; 0x54
 8100dce:	f043 0310 	orr.w	r3, r3, #16
 8100dd2:	6563      	str	r3, [r4, #84]	; 0x54
 8100dd4:	6da3      	ldr	r3, [r4, #88]	; 0x58
 8100dd6:	f043 0301 	orr.w	r3, r3, #1
 8100dda:	65a3      	str	r3, [r4, #88]	; 0x58
 8100ddc:	e77c      	b.n	8100cd8 <HAL_ADC_IRQHandler+0x12c>
 8100dde:	6d63      	ldr	r3, [r4, #84]	; 0x54
 8100de0:	f043 0301 	orr.w	r3, r3, #1
 8100de4:	6563      	str	r3, [r4, #84]	; 0x54
 8100de6:	e777      	b.n	8100cd8 <HAL_ADC_IRQHandler+0x12c>
 8100de8:	4b0c      	ldr	r3, [pc, #48]	; (8100e1c <HAL_ADC_IRQHandler+0x270>)
 8100dea:	e7ba      	b.n	8100d62 <HAL_ADC_IRQHandler+0x1b6>
 8100dec:	68d3      	ldr	r3, [r2, #12]
 8100dee:	f013 0f03 	tst.w	r3, #3
 8100df2:	e7b9      	b.n	8100d68 <HAL_ADC_IRQHandler+0x1bc>
 8100df4:	2f09      	cmp	r7, #9
 8100df6:	d805      	bhi.n	8100e04 <HAL_ADC_IRQHandler+0x258>
 8100df8:	f240 2321 	movw	r3, #545	; 0x221
 8100dfc:	40fb      	lsrs	r3, r7
 8100dfe:	07db      	lsls	r3, r3, #31
 8100e00:	f53f af10 	bmi.w	8100c24 <HAL_ADC_IRQHandler+0x78>
 8100e04:	4b01      	ldr	r3, [pc, #4]	; (8100e0c <HAL_ADC_IRQHandler+0x260>)
 8100e06:	68db      	ldr	r3, [r3, #12]
 8100e08:	e70d      	b.n	8100c26 <HAL_ADC_IRQHandler+0x7a>
 8100e0a:	bdf8      	pop	{r3, r4, r5, r6, r7, pc}
 8100e0c:	40022000 	.word	0x40022000
 8100e10:	40022100 	.word	0x40022100
 8100e14:	58026300 	.word	0x58026300
 8100e18:	02002000 	.word	0x02002000
 8100e1c:	40022300 	.word	0x40022300

08100e20 <HAL_ADC_ConfigChannel>:
 8100e20:	b5f7      	push	{r0, r1, r2, r4, r5, r6, r7, lr}
 8100e22:	2300      	movs	r3, #0
 8100e24:	9301      	str	r3, [sp, #4]
 8100e26:	f890 3050 	ldrb.w	r3, [r0, #80]	; 0x50
 8100e2a:	2b01      	cmp	r3, #1
 8100e2c:	4605      	mov	r5, r0
 8100e2e:	460c      	mov	r4, r1
 8100e30:	f000 81a2 	beq.w	8101178 <HAL_ADC_ConfigChannel+0x358>
 8100e34:	2301      	movs	r3, #1
 8100e36:	f880 3050 	strb.w	r3, [r0, #80]	; 0x50
 8100e3a:	6800      	ldr	r0, [r0, #0]
 8100e3c:	f7ff fead 	bl	8100b9a <LL_ADC_REG_IsConversionOngoing>
 8100e40:	2800      	cmp	r0, #0
 8100e42:	f040 8193 	bne.w	810116c <HAL_ADC_ConfigChannel+0x34c>
 8100e46:	680a      	ldr	r2, [r1, #0]
 8100e48:	f3c2 0013 	ubfx	r0, r2, #0, #20
 8100e4c:	f3c2 6184 	ubfx	r1, r2, #26, #5
 8100e50:	2800      	cmp	r0, #0
 8100e52:	d16c      	bne.n	8100f2e <HAL_ADC_ConfigChannel+0x10e>
 8100e54:	408b      	lsls	r3, r1
 8100e56:	6828      	ldr	r0, [r5, #0]
 8100e58:	69c2      	ldr	r2, [r0, #28]
 8100e5a:	4313      	orrs	r3, r2
 8100e5c:	6862      	ldr	r2, [r4, #4]
 8100e5e:	61c3      	str	r3, [r0, #28]
 8100e60:	0996      	lsrs	r6, r2, #6
 8100e62:	f006 060c 	and.w	r6, r6, #12
 8100e66:	f100 0c30 	add.w	ip, r0, #48	; 0x30
 8100e6a:	f002 021f 	and.w	r2, r2, #31
 8100e6e:	f856 300c 	ldr.w	r3, [r6, ip]
 8100e72:	271f      	movs	r7, #31
 8100e74:	4097      	lsls	r7, r2
 8100e76:	ea23 0307 	bic.w	r3, r3, r7
 8100e7a:	fa01 f202 	lsl.w	r2, r1, r2
 8100e7e:	4313      	orrs	r3, r2
 8100e80:	f846 300c 	str.w	r3, [r6, ip]
 8100e84:	f7ff fe89 	bl	8100b9a <LL_ADC_REG_IsConversionOngoing>
 8100e88:	682f      	ldr	r7, [r5, #0]
 8100e8a:	68bb      	ldr	r3, [r7, #8]
 8100e8c:	f003 0308 	and.w	r3, r3, #8
 8100e90:	ea53 0600 	orrs.w	r6, r3, r0
 8100e94:	d141      	bne.n	8100f1a <HAL_ADC_ConfigChannel+0xfa>
 8100e96:	68a2      	ldr	r2, [r4, #8]
 8100e98:	6821      	ldr	r1, [r4, #0]
 8100e9a:	4638      	mov	r0, r7
 8100e9c:	f7ff fe6c 	bl	8100b78 <LL_ADC_SetChannelSamplingTime>
 8100ea0:	4bb6      	ldr	r3, [pc, #728]	; (810117c <HAL_ADC_ConfigChannel+0x35c>)
 8100ea2:	6962      	ldr	r2, [r4, #20]
 8100ea4:	681b      	ldr	r3, [r3, #0]
 8100ea6:	f003 4370 	and.w	r3, r3, #4026531840	; 0xf0000000
 8100eaa:	f1b3 5f80 	cmp.w	r3, #268435456	; 0x10000000
 8100eae:	682b      	ldr	r3, [r5, #0]
 8100eb0:	68d9      	ldr	r1, [r3, #12]
 8100eb2:	d145      	bne.n	8100f40 <HAL_ADC_ConfigChannel+0x120>
 8100eb4:	f3c1 0182 	ubfx	r1, r1, #2, #3
 8100eb8:	0049      	lsls	r1, r1, #1
 8100eba:	f8d4 c010 	ldr.w	ip, [r4, #16]
 8100ebe:	6820      	ldr	r0, [r4, #0]
 8100ec0:	f1bc 0f04 	cmp.w	ip, #4
 8100ec4:	fa02 f101 	lsl.w	r1, r2, r1
 8100ec8:	d042      	beq.n	8100f50 <HAL_ADC_ConfigChannel+0x130>
 8100eca:	f103 0760 	add.w	r7, r3, #96	; 0x60
 8100ece:	f000 40f8 	and.w	r0, r0, #2080374784	; 0x7c000000
 8100ed2:	f857 202c 	ldr.w	r2, [r7, ip, lsl #2]
 8100ed6:	f002 4200 	and.w	r2, r2, #2147483648	; 0x80000000
 8100eda:	4302      	orrs	r2, r0
 8100edc:	430a      	orrs	r2, r1
 8100ede:	f847 202c 	str.w	r2, [r7, ip, lsl #2]
 8100ee2:	6921      	ldr	r1, [r4, #16]
 8100ee4:	7e62      	ldrb	r2, [r4, #25]
 8100ee6:	2a01      	cmp	r2, #1
 8100ee8:	f857 2021 	ldr.w	r2, [r7, r1, lsl #2]
 8100eec:	bf0c      	ite	eq
 8100eee:	f04f 4000 	moveq.w	r0, #2147483648	; 0x80000000
 8100ef2:	2000      	movne	r0, #0
 8100ef4:	f022 4200 	bic.w	r2, r2, #2147483648	; 0x80000000
 8100ef8:	4302      	orrs	r2, r0
 8100efa:	f847 2021 	str.w	r2, [r7, r1, lsl #2]
 8100efe:	7e21      	ldrb	r1, [r4, #24]
 8100f00:	6922      	ldr	r2, [r4, #16]
 8100f02:	6918      	ldr	r0, [r3, #16]
 8100f04:	2901      	cmp	r1, #1
 8100f06:	bf08      	it	eq
 8100f08:	f44f 6600 	moveq.w	r6, #2048	; 0x800
 8100f0c:	f002 021f 	and.w	r2, r2, #31
 8100f10:	4096      	lsls	r6, r2
 8100f12:	f420 40f0 	bic.w	r0, r0, #30720	; 0x7800
 8100f16:	4306      	orrs	r6, r0
 8100f18:	611e      	str	r6, [r3, #16]
 8100f1a:	6828      	ldr	r0, [r5, #0]
 8100f1c:	6883      	ldr	r3, [r0, #8]
 8100f1e:	07da      	lsls	r2, r3, #31
 8100f20:	d53d      	bpl.n	8100f9e <HAL_ADC_ConfigChannel+0x17e>
 8100f22:	2000      	movs	r0, #0
 8100f24:	2300      	movs	r3, #0
 8100f26:	f885 3050 	strb.w	r3, [r5, #80]	; 0x50
 8100f2a:	b003      	add	sp, #12
 8100f2c:	bdf0      	pop	{r4, r5, r6, r7, pc}
 8100f2e:	fa92 f3a2 	rbit	r3, r2
 8100f32:	fab3 f383 	clz	r3, r3
 8100f36:	f003 001f 	and.w	r0, r3, #31
 8100f3a:	2301      	movs	r3, #1
 8100f3c:	4083      	lsls	r3, r0
 8100f3e:	e78a      	b.n	8100e56 <HAL_ADC_ConfigChannel+0x36>
 8100f40:	f011 0f10 	tst.w	r1, #16
 8100f44:	68d9      	ldr	r1, [r3, #12]
 8100f46:	d0b5      	beq.n	8100eb4 <HAL_ADC_ConfigChannel+0x94>
 8100f48:	0849      	lsrs	r1, r1, #1
 8100f4a:	f001 0108 	and.w	r1, r1, #8
 8100f4e:	e7b4      	b.n	8100eba <HAL_ADC_ConfigChannel+0x9a>
 8100f50:	6e1a      	ldr	r2, [r3, #96]	; 0x60
 8100f52:	f002 42f8 	and.w	r2, r2, #2080374784	; 0x7c000000
 8100f56:	ebb2 6f80 	cmp.w	r2, r0, lsl #26
 8100f5a:	bf02      	ittt	eq
 8100f5c:	6e1a      	ldreq	r2, [r3, #96]	; 0x60
 8100f5e:	f022 4200 	biceq.w	r2, r2, #2147483648	; 0x80000000
 8100f62:	661a      	streq	r2, [r3, #96]	; 0x60
 8100f64:	6e5a      	ldr	r2, [r3, #100]	; 0x64
 8100f66:	0681      	lsls	r1, r0, #26
 8100f68:	f002 42f8 	and.w	r2, r2, #2080374784	; 0x7c000000
 8100f6c:	4291      	cmp	r1, r2
 8100f6e:	bf02      	ittt	eq
 8100f70:	6e5a      	ldreq	r2, [r3, #100]	; 0x64
 8100f72:	f022 4200 	biceq.w	r2, r2, #2147483648	; 0x80000000
 8100f76:	665a      	streq	r2, [r3, #100]	; 0x64
 8100f78:	6e9a      	ldr	r2, [r3, #104]	; 0x68
 8100f7a:	f002 42f8 	and.w	r2, r2, #2080374784	; 0x7c000000
 8100f7e:	4291      	cmp	r1, r2
 8100f80:	bf02      	ittt	eq
 8100f82:	6e9a      	ldreq	r2, [r3, #104]	; 0x68
 8100f84:	f022 4200 	biceq.w	r2, r2, #2147483648	; 0x80000000
 8100f88:	669a      	streq	r2, [r3, #104]	; 0x68
 8100f8a:	6eda      	ldr	r2, [r3, #108]	; 0x6c
 8100f8c:	f002 42f8 	and.w	r2, r2, #2080374784	; 0x7c000000
 8100f90:	4291      	cmp	r1, r2
 8100f92:	bf02      	ittt	eq
 8100f94:	6eda      	ldreq	r2, [r3, #108]	; 0x6c
 8100f96:	f022 4200 	biceq.w	r2, r2, #2147483648	; 0x80000000
 8100f9a:	66da      	streq	r2, [r3, #108]	; 0x6c
 8100f9c:	e7bd      	b.n	8100f1a <HAL_ADC_ConfigChannel+0xfa>
 8100f9e:	68e6      	ldr	r6, [r4, #12]
 8100fa0:	6823      	ldr	r3, [r4, #0]
 8100fa2:	4a77      	ldr	r2, [pc, #476]	; (8101180 <HAL_ADC_ConfigChannel+0x360>)
 8100fa4:	f8d0 10c0 	ldr.w	r1, [r0, #192]	; 0xc0
 8100fa8:	f006 0c18 	and.w	ip, r6, #24
 8100fac:	f3c3 0713 	ubfx	r7, r3, #0, #20
 8100fb0:	fa22 f20c 	lsr.w	r2, r2, ip
 8100fb4:	401a      	ands	r2, r3
 8100fb6:	ea21 0107 	bic.w	r1, r1, r7
 8100fba:	430a      	orrs	r2, r1
 8100fbc:	f8c0 20c0 	str.w	r2, [r0, #192]	; 0xc0
 8100fc0:	4a70      	ldr	r2, [pc, #448]	; (8101184 <HAL_ADC_ConfigChannel+0x364>)
 8100fc2:	4296      	cmp	r6, r2
 8100fc4:	d146      	bne.n	8101054 <HAL_ADC_ConfigChannel+0x234>
 8100fc6:	b9e7      	cbnz	r7, 8101002 <HAL_ADC_ConfigChannel+0x1e2>
 8100fc8:	0e99      	lsrs	r1, r3, #26
 8100fca:	3101      	adds	r1, #1
 8100fcc:	f001 061f 	and.w	r6, r1, #31
 8100fd0:	0689      	lsls	r1, r1, #26
 8100fd2:	f001 42f8 	and.w	r2, r1, #2080374784	; 0x7c000000
 8100fd6:	2e09      	cmp	r6, #9
 8100fd8:	f04f 0101 	mov.w	r1, #1
 8100fdc:	fa01 f106 	lsl.w	r1, r1, r6
 8100fe0:	d92a      	bls.n	8101038 <HAL_ADC_ConfigChannel+0x218>
 8100fe2:	4311      	orrs	r1, r2
 8100fe4:	2f00      	cmp	r7, #0
 8100fe6:	f040 808b 	bne.w	8101100 <HAL_ADC_ConfigChannel+0x2e0>
 8100fea:	0e9a      	lsrs	r2, r3, #26
 8100fec:	3201      	adds	r2, #1
 8100fee:	f002 021f 	and.w	r2, r2, #31
 8100ff2:	eb02 0342 	add.w	r3, r2, r2, lsl #1
 8100ff6:	3b1e      	subs	r3, #30
 8100ff8:	051b      	lsls	r3, r3, #20
 8100ffa:	f043 7300 	orr.w	r3, r3, #33554432	; 0x2000000
 8100ffe:	4319      	orrs	r1, r3
 8101000:	e025      	b.n	810104e <HAL_ADC_ConfigChannel+0x22e>
 8101002:	fa93 f2a3 	rbit	r2, r3
 8101006:	b132      	cbz	r2, 8101016 <HAL_ADC_ConfigChannel+0x1f6>
 8101008:	fab2 f282 	clz	r2, r2
 810100c:	3201      	adds	r2, #1
 810100e:	f002 021f 	and.w	r2, r2, #31
 8101012:	2a09      	cmp	r2, #9
 8101014:	d862      	bhi.n	81010dc <HAL_ADC_ConfigChannel+0x2bc>
 8101016:	fa93 f1a3 	rbit	r1, r3
 810101a:	fab1 f181 	clz	r1, r1
 810101e:	3101      	adds	r1, #1
 8101020:	0689      	lsls	r1, r1, #26
 8101022:	f001 42f8 	and.w	r2, r1, #2080374784	; 0x7c000000
 8101026:	fa93 f1a3 	rbit	r1, r3
 810102a:	fab1 f181 	clz	r1, r1
 810102e:	3101      	adds	r1, #1
 8101030:	f001 061f 	and.w	r6, r1, #31
 8101034:	2101      	movs	r1, #1
 8101036:	40b1      	lsls	r1, r6
 8101038:	4311      	orrs	r1, r2
 810103a:	2f00      	cmp	r7, #0
 810103c:	d149      	bne.n	81010d2 <HAL_ADC_ConfigChannel+0x2b2>
 810103e:	0e9e      	lsrs	r6, r3, #26
 8101040:	3601      	adds	r6, #1
 8101042:	f006 061f 	and.w	r6, r6, #31
 8101046:	eb06 0646 	add.w	r6, r6, r6, lsl #1
 810104a:	0536      	lsls	r6, r6, #20
 810104c:	4331      	orrs	r1, r6
 810104e:	68a2      	ldr	r2, [r4, #8]
 8101050:	f7ff fd92 	bl	8100b78 <LL_ADC_SetChannelSamplingTime>
 8101054:	6821      	ldr	r1, [r4, #0]
 8101056:	2900      	cmp	r1, #0
 8101058:	f6bf af63 	bge.w	8100f22 <HAL_ADC_ConfigChannel+0x102>
 810105c:	682a      	ldr	r2, [r5, #0]
 810105e:	4b4a      	ldr	r3, [pc, #296]	; (8101188 <HAL_ADC_ConfigChannel+0x368>)
 8101060:	484a      	ldr	r0, [pc, #296]	; (810118c <HAL_ADC_ConfigChannel+0x36c>)
 8101062:	4c4b      	ldr	r4, [pc, #300]	; (8101190 <HAL_ADC_ConfigChannel+0x370>)
 8101064:	429a      	cmp	r2, r3
 8101066:	d003      	beq.n	8101070 <HAL_ADC_ConfigChannel+0x250>
 8101068:	4e4a      	ldr	r6, [pc, #296]	; (8101194 <HAL_ADC_ConfigChannel+0x374>)
 810106a:	42a2      	cmp	r2, r4
 810106c:	bf18      	it	ne
 810106e:	4630      	movne	r0, r6
 8101070:	429a      	cmp	r2, r3
 8101072:	6880      	ldr	r0, [r0, #8]
 8101074:	d001      	beq.n	810107a <HAL_ADC_ConfigChannel+0x25a>
 8101076:	42a2      	cmp	r2, r4
 8101078:	d147      	bne.n	810110a <HAL_ADC_ConfigChannel+0x2ea>
 810107a:	4b43      	ldr	r3, [pc, #268]	; (8101188 <HAL_ADC_ConfigChannel+0x368>)
 810107c:	689e      	ldr	r6, [r3, #8]
 810107e:	68a3      	ldr	r3, [r4, #8]
 8101080:	4333      	orrs	r3, r6
 8101082:	43db      	mvns	r3, r3
 8101084:	f003 0301 	and.w	r3, r3, #1
 8101088:	2b00      	cmp	r3, #0
 810108a:	d069      	beq.n	8101160 <HAL_ADC_ConfigChannel+0x340>
 810108c:	4b42      	ldr	r3, [pc, #264]	; (8101198 <HAL_ADC_ConfigChannel+0x378>)
 810108e:	4299      	cmp	r1, r3
 8101090:	f000 74e0 	and.w	r4, r0, #29360128	; 0x1c00000
 8101094:	d13c      	bne.n	8101110 <HAL_ADC_ConfigChannel+0x2f0>
 8101096:	0203      	lsls	r3, r0, #8
 8101098:	f53f af43 	bmi.w	8100f22 <HAL_ADC_ConfigChannel+0x102>
 810109c:	4b3f      	ldr	r3, [pc, #252]	; (810119c <HAL_ADC_ConfigChannel+0x37c>)
 810109e:	429a      	cmp	r2, r3
 81010a0:	f47f af3f 	bne.w	8100f22 <HAL_ADC_ConfigChannel+0x102>
 81010a4:	4a3b      	ldr	r2, [pc, #236]	; (8101194 <HAL_ADC_ConfigChannel+0x374>)
 81010a6:	6893      	ldr	r3, [r2, #8]
 81010a8:	f023 73e0 	bic.w	r3, r3, #29360128	; 0x1c00000
 81010ac:	4323      	orrs	r3, r4
 81010ae:	f443 0300 	orr.w	r3, r3, #8388608	; 0x800000
 81010b2:	6093      	str	r3, [r2, #8]
 81010b4:	4b3a      	ldr	r3, [pc, #232]	; (81011a0 <HAL_ADC_ConfigChannel+0x380>)
 81010b6:	4a3b      	ldr	r2, [pc, #236]	; (81011a4 <HAL_ADC_ConfigChannel+0x384>)
 81010b8:	681b      	ldr	r3, [r3, #0]
 81010ba:	fbb3 f3f2 	udiv	r3, r3, r2
 81010be:	3301      	adds	r3, #1
 81010c0:	005b      	lsls	r3, r3, #1
 81010c2:	9301      	str	r3, [sp, #4]
 81010c4:	9b01      	ldr	r3, [sp, #4]
 81010c6:	2b00      	cmp	r3, #0
 81010c8:	f43f af2b 	beq.w	8100f22 <HAL_ADC_ConfigChannel+0x102>
 81010cc:	9b01      	ldr	r3, [sp, #4]
 81010ce:	3b01      	subs	r3, #1
 81010d0:	e7f7      	b.n	81010c2 <HAL_ADC_ConfigChannel+0x2a2>
 81010d2:	fa93 f6a3 	rbit	r6, r3
 81010d6:	fab6 f686 	clz	r6, r6
 81010da:	e7b1      	b.n	8101040 <HAL_ADC_ConfigChannel+0x220>
 81010dc:	fa93 f1a3 	rbit	r1, r3
 81010e0:	fab1 f181 	clz	r1, r1
 81010e4:	3101      	adds	r1, #1
 81010e6:	0689      	lsls	r1, r1, #26
 81010e8:	f001 42f8 	and.w	r2, r1, #2080374784	; 0x7c000000
 81010ec:	fa93 f1a3 	rbit	r1, r3
 81010f0:	fab1 f181 	clz	r1, r1
 81010f4:	3101      	adds	r1, #1
 81010f6:	f001 061f 	and.w	r6, r1, #31
 81010fa:	2101      	movs	r1, #1
 81010fc:	40b1      	lsls	r1, r6
 81010fe:	e770      	b.n	8100fe2 <HAL_ADC_ConfigChannel+0x1c2>
 8101100:	fa93 f2a3 	rbit	r2, r3
 8101104:	fab2 f282 	clz	r2, r2
 8101108:	e770      	b.n	8100fec <HAL_ADC_ConfigChannel+0x1cc>
 810110a:	4b24      	ldr	r3, [pc, #144]	; (810119c <HAL_ADC_ConfigChannel+0x37c>)
 810110c:	689b      	ldr	r3, [r3, #8]
 810110e:	e7b8      	b.n	8101082 <HAL_ADC_ConfigChannel+0x262>
 8101110:	4b25      	ldr	r3, [pc, #148]	; (81011a8 <HAL_ADC_ConfigChannel+0x388>)
 8101112:	4299      	cmp	r1, r3
 8101114:	d110      	bne.n	8101138 <HAL_ADC_ConfigChannel+0x318>
 8101116:	f010 7080 	ands.w	r0, r0, #16777216	; 0x1000000
 810111a:	f47f af02 	bne.w	8100f22 <HAL_ADC_ConfigChannel+0x102>
 810111e:	4b1f      	ldr	r3, [pc, #124]	; (810119c <HAL_ADC_ConfigChannel+0x37c>)
 8101120:	429a      	cmp	r2, r3
 8101122:	f47f aefe 	bne.w	8100f22 <HAL_ADC_ConfigChannel+0x102>
 8101126:	4a1b      	ldr	r2, [pc, #108]	; (8101194 <HAL_ADC_ConfigChannel+0x374>)
 8101128:	6893      	ldr	r3, [r2, #8]
 810112a:	f023 73e0 	bic.w	r3, r3, #29360128	; 0x1c00000
 810112e:	4323      	orrs	r3, r4
 8101130:	f043 7380 	orr.w	r3, r3, #16777216	; 0x1000000
 8101134:	6093      	str	r3, [r2, #8]
 8101136:	e6f5      	b.n	8100f24 <HAL_ADC_ConfigChannel+0x104>
 8101138:	4b1c      	ldr	r3, [pc, #112]	; (81011ac <HAL_ADC_ConfigChannel+0x38c>)
 810113a:	4299      	cmp	r1, r3
 810113c:	f47f aef1 	bne.w	8100f22 <HAL_ADC_ConfigChannel+0x102>
 8101140:	f410 0080 	ands.w	r0, r0, #4194304	; 0x400000
 8101144:	f47f aeed 	bne.w	8100f22 <HAL_ADC_ConfigChannel+0x102>
 8101148:	4b14      	ldr	r3, [pc, #80]	; (810119c <HAL_ADC_ConfigChannel+0x37c>)
 810114a:	429a      	cmp	r2, r3
 810114c:	f47f aee9 	bne.w	8100f22 <HAL_ADC_ConfigChannel+0x102>
 8101150:	4a10      	ldr	r2, [pc, #64]	; (8101194 <HAL_ADC_ConfigChannel+0x374>)
 8101152:	6893      	ldr	r3, [r2, #8]
 8101154:	f023 73e0 	bic.w	r3, r3, #29360128	; 0x1c00000
 8101158:	4323      	orrs	r3, r4
 810115a:	f443 0380 	orr.w	r3, r3, #4194304	; 0x400000
 810115e:	e7e9      	b.n	8101134 <HAL_ADC_ConfigChannel+0x314>
 8101160:	6d6b      	ldr	r3, [r5, #84]	; 0x54
 8101162:	f043 0320 	orr.w	r3, r3, #32
 8101166:	656b      	str	r3, [r5, #84]	; 0x54
 8101168:	2001      	movs	r0, #1
 810116a:	e6db      	b.n	8100f24 <HAL_ADC_ConfigChannel+0x104>
 810116c:	6d6a      	ldr	r2, [r5, #84]	; 0x54
 810116e:	f042 0220 	orr.w	r2, r2, #32
 8101172:	656a      	str	r2, [r5, #84]	; 0x54
 8101174:	4618      	mov	r0, r3
 8101176:	e6d5      	b.n	8100f24 <HAL_ADC_ConfigChannel+0x104>
 8101178:	2002      	movs	r0, #2
 810117a:	e6d6      	b.n	8100f2a <HAL_ADC_ConfigChannel+0x10a>
 810117c:	5c001000 	.word	0x5c001000
 8101180:	000fffff 	.word	0x000fffff
 8101184:	47ff0000 	.word	0x47ff0000
 8101188:	40022000 	.word	0x40022000
 810118c:	40022300 	.word	0x40022300
 8101190:	40022100 	.word	0x40022100
 8101194:	58026300 	.word	0x58026300
 8101198:	cb840000 	.word	0xcb840000
 810119c:	58026000 	.word	0x58026000
 81011a0:	10000000 	.word	0x10000000
 81011a4:	00030d40 	.word	0x00030d40
 81011a8:	c7520000 	.word	0xc7520000
 81011ac:	cfb80000 	.word	0xcfb80000

081011b0 <ADC_Enable>:
 81011b0:	6802      	ldr	r2, [r0, #0]
 81011b2:	6893      	ldr	r3, [r2, #8]
 81011b4:	07d9      	lsls	r1, r3, #31
 81011b6:	b570      	push	{r4, r5, r6, lr}
 81011b8:	4604      	mov	r4, r0
 81011ba:	d501      	bpl.n	81011c0 <ADC_Enable+0x10>
 81011bc:	2000      	movs	r0, #0
 81011be:	bd70      	pop	{r4, r5, r6, pc}
 81011c0:	6891      	ldr	r1, [r2, #8]
 81011c2:	4b22      	ldr	r3, [pc, #136]	; (810124c <ADC_Enable+0x9c>)
 81011c4:	4219      	tst	r1, r3
 81011c6:	d009      	beq.n	81011dc <ADC_Enable+0x2c>
 81011c8:	6d63      	ldr	r3, [r4, #84]	; 0x54
 81011ca:	f043 0310 	orr.w	r3, r3, #16
 81011ce:	6563      	str	r3, [r4, #84]	; 0x54
 81011d0:	6da3      	ldr	r3, [r4, #88]	; 0x58
 81011d2:	f043 0301 	orr.w	r3, r3, #1
 81011d6:	65a3      	str	r3, [r4, #88]	; 0x58
 81011d8:	2001      	movs	r0, #1
 81011da:	e7f0      	b.n	81011be <ADC_Enable+0xe>
 81011dc:	6893      	ldr	r3, [r2, #8]
 81011de:	f023 4300 	bic.w	r3, r3, #2147483648	; 0x80000000
 81011e2:	f023 033f 	bic.w	r3, r3, #63	; 0x3f
 81011e6:	f043 0301 	orr.w	r3, r3, #1
 81011ea:	6093      	str	r3, [r2, #8]
 81011ec:	f7ff fcb8 	bl	8100b60 <HAL_GetTick>
 81011f0:	6822      	ldr	r2, [r4, #0]
 81011f2:	4b17      	ldr	r3, [pc, #92]	; (8101250 <ADC_Enable+0xa0>)
 81011f4:	4917      	ldr	r1, [pc, #92]	; (8101254 <ADC_Enable+0xa4>)
 81011f6:	429a      	cmp	r2, r3
 81011f8:	4605      	mov	r5, r0
 81011fa:	d00e      	beq.n	810121a <ADC_Enable+0x6a>
 81011fc:	4816      	ldr	r0, [pc, #88]	; (8101258 <ADC_Enable+0xa8>)
 81011fe:	f103 53c0 	add.w	r3, r3, #402653184	; 0x18000000
 8101202:	f503 4386 	add.w	r3, r3, #17152	; 0x4300
 8101206:	428a      	cmp	r2, r1
 8101208:	bf08      	it	eq
 810120a:	4603      	moveq	r3, r0
 810120c:	428a      	cmp	r2, r1
 810120e:	689b      	ldr	r3, [r3, #8]
 8101210:	d101      	bne.n	8101216 <ADC_Enable+0x66>
 8101212:	06db      	lsls	r3, r3, #27
 8101214:	d1d2      	bne.n	81011bc <ADC_Enable+0xc>
 8101216:	4e11      	ldr	r6, [pc, #68]	; (810125c <ADC_Enable+0xac>)
 8101218:	e012      	b.n	8101240 <ADC_Enable+0x90>
 810121a:	4b0f      	ldr	r3, [pc, #60]	; (8101258 <ADC_Enable+0xa8>)
 810121c:	e7f6      	b.n	810120c <ADC_Enable+0x5c>
 810121e:	6893      	ldr	r3, [r2, #8]
 8101220:	07db      	lsls	r3, r3, #31
 8101222:	bf5f      	itttt	pl
 8101224:	6893      	ldrpl	r3, [r2, #8]
 8101226:	4033      	andpl	r3, r6
 8101228:	f043 0301 	orrpl.w	r3, r3, #1
 810122c:	6093      	strpl	r3, [r2, #8]
 810122e:	f7ff fc97 	bl	8100b60 <HAL_GetTick>
 8101232:	1b40      	subs	r0, r0, r5
 8101234:	2802      	cmp	r0, #2
 8101236:	d903      	bls.n	8101240 <ADC_Enable+0x90>
 8101238:	6823      	ldr	r3, [r4, #0]
 810123a:	681b      	ldr	r3, [r3, #0]
 810123c:	07d8      	lsls	r0, r3, #31
 810123e:	d5c3      	bpl.n	81011c8 <ADC_Enable+0x18>
 8101240:	6822      	ldr	r2, [r4, #0]
 8101242:	6813      	ldr	r3, [r2, #0]
 8101244:	07d9      	lsls	r1, r3, #31
 8101246:	d5ea      	bpl.n	810121e <ADC_Enable+0x6e>
 8101248:	e7b8      	b.n	81011bc <ADC_Enable+0xc>
 810124a:	bf00      	nop
 810124c:	8000003f 	.word	0x8000003f
 8101250:	40022000 	.word	0x40022000
 8101254:	40022100 	.word	0x40022100
 8101258:	40022300 	.word	0x40022300
 810125c:	7fffffc0 	.word	0x7fffffc0

08101260 <HAL_ADC_Start_IT>:
 8101260:	b570      	push	{r4, r5, r6, lr}
 8101262:	4b56      	ldr	r3, [pc, #344]	; (81013bc <HAL_ADC_Start_IT+0x15c>)
 8101264:	4604      	mov	r4, r0
 8101266:	6800      	ldr	r0, [r0, #0]
 8101268:	4298      	cmp	r0, r3
 810126a:	d07d      	beq.n	8101368 <HAL_ADC_Start_IT+0x108>
 810126c:	4954      	ldr	r1, [pc, #336]	; (81013c0 <HAL_ADC_Start_IT+0x160>)
 810126e:	4a55      	ldr	r2, [pc, #340]	; (81013c4 <HAL_ADC_Start_IT+0x164>)
 8101270:	f103 53c0 	add.w	r3, r3, #402653184	; 0x18000000
 8101274:	f503 4386 	add.w	r3, r3, #17152	; 0x4300
 8101278:	4288      	cmp	r0, r1
 810127a:	bf08      	it	eq
 810127c:	4613      	moveq	r3, r2
 810127e:	689e      	ldr	r6, [r3, #8]
 8101280:	f7ff fc8b 	bl	8100b9a <LL_ADC_REG_IsConversionOngoing>
 8101284:	4605      	mov	r5, r0
 8101286:	2800      	cmp	r0, #0
 8101288:	f040 8092 	bne.w	81013b0 <HAL_ADC_Start_IT+0x150>
 810128c:	f894 3050 	ldrb.w	r3, [r4, #80]	; 0x50
 8101290:	2b01      	cmp	r3, #1
 8101292:	f000 808d 	beq.w	81013b0 <HAL_ADC_Start_IT+0x150>
 8101296:	2301      	movs	r3, #1
 8101298:	f884 3050 	strb.w	r3, [r4, #80]	; 0x50
 810129c:	4620      	mov	r0, r4
 810129e:	f7ff ff87 	bl	81011b0 <ADC_Enable>
 81012a2:	2800      	cmp	r0, #0
 81012a4:	f040 8081 	bne.w	81013aa <HAL_ADC_Start_IT+0x14a>
 81012a8:	6d63      	ldr	r3, [r4, #84]	; 0x54
 81012aa:	4945      	ldr	r1, [pc, #276]	; (81013c0 <HAL_ADC_Start_IT+0x160>)
 81012ac:	f423 6370 	bic.w	r3, r3, #3840	; 0xf00
 81012b0:	f023 0301 	bic.w	r3, r3, #1
 81012b4:	f443 7380 	orr.w	r3, r3, #256	; 0x100
 81012b8:	6563      	str	r3, [r4, #84]	; 0x54
 81012ba:	6823      	ldr	r3, [r4, #0]
 81012bc:	428b      	cmp	r3, r1
 81012be:	f006 021f 	and.w	r2, r6, #31
 81012c2:	d077      	beq.n	81013b4 <HAL_ADC_Start_IT+0x154>
 81012c4:	4619      	mov	r1, r3
 81012c6:	6d65      	ldr	r5, [r4, #84]	; 0x54
 81012c8:	f425 1580 	bic.w	r5, r5, #1048576	; 0x100000
 81012cc:	6565      	str	r5, [r4, #84]	; 0x54
 81012ce:	6d65      	ldr	r5, [r4, #84]	; 0x54
 81012d0:	f415 5580 	ands.w	r5, r5, #4096	; 0x1000
 81012d4:	bf1c      	itt	ne
 81012d6:	6da5      	ldrne	r5, [r4, #88]	; 0x58
 81012d8:	f025 0506 	bicne.w	r5, r5, #6
 81012dc:	65a5      	str	r5, [r4, #88]	; 0x58
 81012de:	251c      	movs	r5, #28
 81012e0:	601d      	str	r5, [r3, #0]
 81012e2:	2500      	movs	r5, #0
 81012e4:	f884 5050 	strb.w	r5, [r4, #80]	; 0x50
 81012e8:	685d      	ldr	r5, [r3, #4]
 81012ea:	f025 051c 	bic.w	r5, r5, #28
 81012ee:	605d      	str	r5, [r3, #4]
 81012f0:	6925      	ldr	r5, [r4, #16]
 81012f2:	685e      	ldr	r6, [r3, #4]
 81012f4:	2d08      	cmp	r5, #8
 81012f6:	bf0c      	ite	eq
 81012f8:	f046 0608 	orreq.w	r6, r6, #8
 81012fc:	f046 0604 	orrne.w	r6, r6, #4
 8101300:	605e      	str	r6, [r3, #4]
 8101302:	6b26      	ldr	r6, [r4, #48]	; 0x30
 8101304:	b91e      	cbnz	r6, 810130e <HAL_ADC_Start_IT+0xae>
 8101306:	685e      	ldr	r6, [r3, #4]
 8101308:	f046 0610 	orr.w	r6, r6, #16
 810130c:	605e      	str	r6, [r3, #4]
 810130e:	428b      	cmp	r3, r1
 8101310:	d007      	beq.n	8101322 <HAL_ADC_Start_IT+0xc2>
 8101312:	2a09      	cmp	r2, #9
 8101314:	d82a      	bhi.n	810136c <HAL_ADC_Start_IT+0x10c>
 8101316:	f240 2621 	movw	r6, #545	; 0x221
 810131a:	fa26 f202 	lsr.w	r2, r6, r2
 810131e:	07d6      	lsls	r6, r2, #31
 8101320:	d524      	bpl.n	810136c <HAL_ADC_Start_IT+0x10c>
 8101322:	68da      	ldr	r2, [r3, #12]
 8101324:	0191      	lsls	r1, r2, #6
 8101326:	d516      	bpl.n	8101356 <HAL_ADC_Start_IT+0xf6>
 8101328:	6d62      	ldr	r2, [r4, #84]	; 0x54
 810132a:	f422 5240 	bic.w	r2, r2, #12288	; 0x3000
 810132e:	f442 5280 	orr.w	r2, r2, #4096	; 0x1000
 8101332:	6562      	str	r2, [r4, #84]	; 0x54
 8101334:	685a      	ldr	r2, [r3, #4]
 8101336:	2d08      	cmp	r5, #8
 8101338:	bf0b      	itete	eq
 810133a:	f022 0220 	biceq.w	r2, r2, #32
 810133e:	f022 0240 	bicne.w	r2, r2, #64	; 0x40
 8101342:	605a      	streq	r2, [r3, #4]
 8101344:	605a      	strne	r2, [r3, #4]
 8101346:	bf0b      	itete	eq
 8101348:	685a      	ldreq	r2, [r3, #4]
 810134a:	685a      	ldrne	r2, [r3, #4]
 810134c:	f042 0240 	orreq.w	r2, r2, #64	; 0x40
 8101350:	f042 0220 	orrne.w	r2, r2, #32
 8101354:	605a      	str	r2, [r3, #4]
 8101356:	689a      	ldr	r2, [r3, #8]
 8101358:	f022 4200 	bic.w	r2, r2, #2147483648	; 0x80000000
 810135c:	f022 023f 	bic.w	r2, r2, #63	; 0x3f
 8101360:	f042 0204 	orr.w	r2, r2, #4
 8101364:	609a      	str	r2, [r3, #8]
 8101366:	bd70      	pop	{r4, r5, r6, pc}
 8101368:	4b16      	ldr	r3, [pc, #88]	; (81013c4 <HAL_ADC_Start_IT+0x164>)
 810136a:	e788      	b.n	810127e <HAL_ADC_Start_IT+0x1e>
 810136c:	6d62      	ldr	r2, [r4, #84]	; 0x54
 810136e:	f442 1280 	orr.w	r2, r2, #1048576	; 0x100000
 8101372:	6562      	str	r2, [r4, #84]	; 0x54
 8101374:	68ca      	ldr	r2, [r1, #12]
 8101376:	0192      	lsls	r2, r2, #6
 8101378:	d5f5      	bpl.n	8101366 <HAL_ADC_Start_IT+0x106>
 810137a:	6d62      	ldr	r2, [r4, #84]	; 0x54
 810137c:	f422 5240 	bic.w	r2, r2, #12288	; 0x3000
 8101380:	f442 5280 	orr.w	r2, r2, #4096	; 0x1000
 8101384:	6562      	str	r2, [r4, #84]	; 0x54
 8101386:	685a      	ldr	r2, [r3, #4]
 8101388:	2d08      	cmp	r5, #8
 810138a:	bf0b      	itete	eq
 810138c:	f022 0220 	biceq.w	r2, r2, #32
 8101390:	f022 0240 	bicne.w	r2, r2, #64	; 0x40
 8101394:	605a      	streq	r2, [r3, #4]
 8101396:	605a      	strne	r2, [r3, #4]
 8101398:	bf0b      	itete	eq
 810139a:	685a      	ldreq	r2, [r3, #4]
 810139c:	685a      	ldrne	r2, [r3, #4]
 810139e:	f042 0240 	orreq.w	r2, r2, #64	; 0x40
 81013a2:	f042 0220 	orrne.w	r2, r2, #32
 81013a6:	605a      	str	r2, [r3, #4]
 81013a8:	e7dd      	b.n	8101366 <HAL_ADC_Start_IT+0x106>
 81013aa:	f884 5050 	strb.w	r5, [r4, #80]	; 0x50
 81013ae:	e7da      	b.n	8101366 <HAL_ADC_Start_IT+0x106>
 81013b0:	2002      	movs	r0, #2
 81013b2:	e7d8      	b.n	8101366 <HAL_ADC_Start_IT+0x106>
 81013b4:	4901      	ldr	r1, [pc, #4]	; (81013bc <HAL_ADC_Start_IT+0x15c>)
 81013b6:	2a00      	cmp	r2, #0
 81013b8:	d085      	beq.n	81012c6 <HAL_ADC_Start_IT+0x66>
 81013ba:	e788      	b.n	81012ce <HAL_ADC_Start_IT+0x6e>
 81013bc:	40022000 	.word	0x40022000
 81013c0:	40022100 	.word	0x40022100
 81013c4:	40022300 	.word	0x40022300

081013c8 <ADC_ConfigureBoostMode>:
 81013c8:	b538      	push	{r3, r4, r5, lr}
 81013ca:	4a43      	ldr	r2, [pc, #268]	; (81014d8 <ADC_ConfigureBoostMode+0x110>)
 81013cc:	6803      	ldr	r3, [r0, #0]
 81013ce:	4293      	cmp	r3, r2
 81013d0:	4605      	mov	r5, r0
 81013d2:	d003      	beq.n	81013dc <ADC_ConfigureBoostMode+0x14>
 81013d4:	f502 7280 	add.w	r2, r2, #256	; 0x100
 81013d8:	4293      	cmp	r3, r2
 81013da:	d118      	bne.n	810140e <ADC_ConfigureBoostMode+0x46>
 81013dc:	4b3f      	ldr	r3, [pc, #252]	; (81014dc <ADC_ConfigureBoostMode+0x114>)
 81013de:	689b      	ldr	r3, [r3, #8]
 81013e0:	f413 3f40 	tst.w	r3, #196608	; 0x30000
 81013e4:	bf14      	ite	ne
 81013e6:	2301      	movne	r3, #1
 81013e8:	2300      	moveq	r3, #0
 81013ea:	b30b      	cbz	r3, 8101430 <ADC_ConfigureBoostMode+0x68>
 81013ec:	f000 fc6e 	bl	8101ccc <HAL_RCC_GetHCLKFreq>
 81013f0:	686b      	ldr	r3, [r5, #4]
 81013f2:	f5b3 3f00 	cmp.w	r3, #131072	; 0x20000
 81013f6:	4604      	mov	r4, r0
 81013f8:	d005      	beq.n	8101406 <ADC_ConfigureBoostMode+0x3e>
 81013fa:	f5b3 3f40 	cmp.w	r3, #196608	; 0x30000
 81013fe:	d008      	beq.n	8101412 <ADC_ConfigureBoostMode+0x4a>
 8101400:	f5b3 3f80 	cmp.w	r3, #65536	; 0x10000
 8101404:	d106      	bne.n	8101414 <ADC_ConfigureBoostMode+0x4c>
 8101406:	0c1b      	lsrs	r3, r3, #16
 8101408:	fbb4 f4f3 	udiv	r4, r4, r3
 810140c:	e002      	b.n	8101414 <ADC_ConfigureBoostMode+0x4c>
 810140e:	4b34      	ldr	r3, [pc, #208]	; (81014e0 <ADC_ConfigureBoostMode+0x118>)
 8101410:	e7e5      	b.n	81013de <ADC_ConfigureBoostMode+0x16>
 8101412:	0884      	lsrs	r4, r0, #2
 8101414:	f7ff fbaa 	bl	8100b6c <HAL_GetREVID>
 8101418:	f241 0303 	movw	r3, #4099	; 0x1003
 810141c:	4298      	cmp	r0, r3
 810141e:	682b      	ldr	r3, [r5, #0]
 8101420:	d840      	bhi.n	81014a4 <ADC_ConfigureBoostMode+0xdc>
 8101422:	4a30      	ldr	r2, [pc, #192]	; (81014e4 <ADC_ConfigureBoostMode+0x11c>)
 8101424:	4294      	cmp	r4, r2
 8101426:	689a      	ldr	r2, [r3, #8]
 8101428:	d938      	bls.n	810149c <ADC_ConfigureBoostMode+0xd4>
 810142a:	f442 7280 	orr.w	r2, r2, #256	; 0x100
 810142e:	e037      	b.n	81014a0 <ADC_ConfigureBoostMode+0xd8>
 8101430:	f44f 2000 	mov.w	r0, #524288	; 0x80000
 8101434:	f001 fc1a 	bl	8102c6c <HAL_RCCEx_GetPeriphCLKFreq>
 8101438:	686b      	ldr	r3, [r5, #4]
 810143a:	f5b3 1f10 	cmp.w	r3, #2359296	; 0x240000
 810143e:	4604      	mov	r4, r0
 8101440:	d028      	beq.n	8101494 <ADC_ConfigureBoostMode+0xcc>
 8101442:	d81d      	bhi.n	8101480 <ADC_ConfigureBoostMode+0xb8>
 8101444:	f5b3 1fe0 	cmp.w	r3, #1835008	; 0x1c0000
 8101448:	d022      	beq.n	8101490 <ADC_ConfigureBoostMode+0xc8>
 810144a:	d814      	bhi.n	8101476 <ADC_ConfigureBoostMode+0xae>
 810144c:	f5b3 1f80 	cmp.w	r3, #1048576	; 0x100000
 8101450:	d008      	beq.n	8101464 <ADC_ConfigureBoostMode+0x9c>
 8101452:	d80a      	bhi.n	810146a <ADC_ConfigureBoostMode+0xa2>
 8101454:	f5b3 2f00 	cmp.w	r3, #524288	; 0x80000
 8101458:	d004      	beq.n	8101464 <ADC_ConfigureBoostMode+0x9c>
 810145a:	f423 2200 	bic.w	r2, r3, #524288	; 0x80000
 810145e:	f5b2 2f80 	cmp.w	r2, #262144	; 0x40000
 8101462:	d1d7      	bne.n	8101414 <ADC_ConfigureBoostMode+0x4c>
 8101464:	0c9b      	lsrs	r3, r3, #18
 8101466:	005b      	lsls	r3, r3, #1
 8101468:	e7ce      	b.n	8101408 <ADC_ConfigureBoostMode+0x40>
 810146a:	f5b3 1fa0 	cmp.w	r3, #1310720	; 0x140000
 810146e:	d0f9      	beq.n	8101464 <ADC_ConfigureBoostMode+0x9c>
 8101470:	f5b3 1fc0 	cmp.w	r3, #1572864	; 0x180000
 8101474:	e7f5      	b.n	8101462 <ADC_ConfigureBoostMode+0x9a>
 8101476:	f5b3 1f00 	cmp.w	r3, #2097152	; 0x200000
 810147a:	d1cb      	bne.n	8101414 <ADC_ConfigureBoostMode+0x4c>
 810147c:	0944      	lsrs	r4, r0, #5
 810147e:	e7c9      	b.n	8101414 <ADC_ConfigureBoostMode+0x4c>
 8101480:	f5b3 1f20 	cmp.w	r3, #2621440	; 0x280000
 8101484:	d008      	beq.n	8101498 <ADC_ConfigureBoostMode+0xd0>
 8101486:	f5b3 1f30 	cmp.w	r3, #2883584	; 0x2c0000
 810148a:	d1c3      	bne.n	8101414 <ADC_ConfigureBoostMode+0x4c>
 810148c:	0a04      	lsrs	r4, r0, #8
 810148e:	e7c1      	b.n	8101414 <ADC_ConfigureBoostMode+0x4c>
 8101490:	0904      	lsrs	r4, r0, #4
 8101492:	e7bf      	b.n	8101414 <ADC_ConfigureBoostMode+0x4c>
 8101494:	0984      	lsrs	r4, r0, #6
 8101496:	e7bd      	b.n	8101414 <ADC_ConfigureBoostMode+0x4c>
 8101498:	09c4      	lsrs	r4, r0, #7
 810149a:	e7bb      	b.n	8101414 <ADC_ConfigureBoostMode+0x4c>
 810149c:	f422 7280 	bic.w	r2, r2, #256	; 0x100
 81014a0:	609a      	str	r2, [r3, #8]
 81014a2:	bd38      	pop	{r3, r4, r5, pc}
 81014a4:	4a10      	ldr	r2, [pc, #64]	; (81014e8 <ADC_ConfigureBoostMode+0x120>)
 81014a6:	4294      	cmp	r4, r2
 81014a8:	d803      	bhi.n	81014b2 <ADC_ConfigureBoostMode+0xea>
 81014aa:	689a      	ldr	r2, [r3, #8]
 81014ac:	f422 7240 	bic.w	r2, r2, #768	; 0x300
 81014b0:	e7f6      	b.n	81014a0 <ADC_ConfigureBoostMode+0xd8>
 81014b2:	4a0e      	ldr	r2, [pc, #56]	; (81014ec <ADC_ConfigureBoostMode+0x124>)
 81014b4:	4294      	cmp	r4, r2
 81014b6:	d803      	bhi.n	81014c0 <ADC_ConfigureBoostMode+0xf8>
 81014b8:	689a      	ldr	r2, [r3, #8]
 81014ba:	f422 7240 	bic.w	r2, r2, #768	; 0x300
 81014be:	e7b4      	b.n	810142a <ADC_ConfigureBoostMode+0x62>
 81014c0:	4a0b      	ldr	r2, [pc, #44]	; (81014f0 <ADC_ConfigureBoostMode+0x128>)
 81014c2:	4294      	cmp	r4, r2
 81014c4:	689a      	ldr	r2, [r3, #8]
 81014c6:	bf9a      	itte	ls
 81014c8:	f422 7240 	bicls.w	r2, r2, #768	; 0x300
 81014cc:	f442 7200 	orrls.w	r2, r2, #512	; 0x200
 81014d0:	f442 7240 	orrhi.w	r2, r2, #768	; 0x300
 81014d4:	e7e4      	b.n	81014a0 <ADC_ConfigureBoostMode+0xd8>
 81014d6:	bf00      	nop
 81014d8:	40022000 	.word	0x40022000
 81014dc:	40022300 	.word	0x40022300
 81014e0:	58026300 	.word	0x58026300
 81014e4:	01312d00 	.word	0x01312d00
 81014e8:	00bebc21 	.word	0x00bebc21
 81014ec:	017d7841 	.word	0x017d7841
 81014f0:	02faf081 	.word	0x02faf081

081014f4 <HAL_ADC_Init>:
 81014f4:	b573      	push	{r0, r1, r4, r5, r6, lr}
 81014f6:	2300      	movs	r3, #0
 81014f8:	9301      	str	r3, [sp, #4]
 81014fa:	4604      	mov	r4, r0
 81014fc:	2800      	cmp	r0, #0
 81014fe:	f000 80ee 	beq.w	81016de <HAL_ADC_Init+0x1ea>
 8101502:	6d45      	ldr	r5, [r0, #84]	; 0x54
 8101504:	b925      	cbnz	r5, 8101510 <HAL_ADC_Init+0x1c>
 8101506:	f7fe ff4b 	bl	81003a0 <HAL_ADC_MspInit>
 810150a:	65a5      	str	r5, [r4, #88]	; 0x58
 810150c:	f884 5050 	strb.w	r5, [r4, #80]	; 0x50
 8101510:	6820      	ldr	r0, [r4, #0]
 8101512:	6883      	ldr	r3, [r0, #8]
 8101514:	009d      	lsls	r5, r3, #2
 8101516:	bf41      	itttt	mi
 8101518:	6883      	ldrmi	r3, [r0, #8]
 810151a:	f023 4320 	bicmi.w	r3, r3, #2684354560	; 0xa0000000
 810151e:	f023 033f 	bicmi.w	r3, r3, #63	; 0x3f
 8101522:	6083      	strmi	r3, [r0, #8]
 8101524:	6883      	ldr	r3, [r0, #8]
 8101526:	00d9      	lsls	r1, r3, #3
 8101528:	f140 809d 	bpl.w	8101666 <HAL_ADC_Init+0x172>
 810152c:	6883      	ldr	r3, [r0, #8]
 810152e:	00da      	lsls	r2, r3, #3
 8101530:	f100 80af 	bmi.w	8101692 <HAL_ADC_Init+0x19e>
 8101534:	6d63      	ldr	r3, [r4, #84]	; 0x54
 8101536:	f043 0310 	orr.w	r3, r3, #16
 810153a:	6563      	str	r3, [r4, #84]	; 0x54
 810153c:	6da3      	ldr	r3, [r4, #88]	; 0x58
 810153e:	f043 0301 	orr.w	r3, r3, #1
 8101542:	65a3      	str	r3, [r4, #88]	; 0x58
 8101544:	2501      	movs	r5, #1
 8101546:	f7ff fb28 	bl	8100b9a <LL_ADC_REG_IsConversionOngoing>
 810154a:	6d63      	ldr	r3, [r4, #84]	; 0x54
 810154c:	f003 0310 	and.w	r3, r3, #16
 8101550:	4303      	orrs	r3, r0
 8101552:	6d63      	ldr	r3, [r4, #84]	; 0x54
 8101554:	f040 80c0 	bne.w	81016d8 <HAL_ADC_Init+0x1e4>
 8101558:	f423 7381 	bic.w	r3, r3, #258	; 0x102
 810155c:	f043 0302 	orr.w	r3, r3, #2
 8101560:	6822      	ldr	r2, [r4, #0]
 8101562:	6563      	str	r3, [r4, #84]	; 0x54
 8101564:	6893      	ldr	r3, [r2, #8]
 8101566:	07db      	lsls	r3, r3, #31
 8101568:	d40c      	bmi.n	8101584 <HAL_ADC_Init+0x90>
 810156a:	495e      	ldr	r1, [pc, #376]	; (81016e4 <HAL_ADC_Init+0x1f0>)
 810156c:	485e      	ldr	r0, [pc, #376]	; (81016e8 <HAL_ADC_Init+0x1f4>)
 810156e:	428a      	cmp	r2, r1
 8101570:	d002      	beq.n	8101578 <HAL_ADC_Init+0x84>
 8101572:	4282      	cmp	r2, r0
 8101574:	f040 808f 	bne.w	8101696 <HAL_ADC_Init+0x1a2>
 8101578:	688e      	ldr	r6, [r1, #8]
 810157a:	6883      	ldr	r3, [r0, #8]
 810157c:	4333      	orrs	r3, r6
 810157e:	07de      	lsls	r6, r3, #31
 8101580:	f140 8090 	bpl.w	81016a4 <HAL_ADC_Init+0x1b0>
 8101584:	f7ff faf2 	bl	8100b6c <HAL_GetREVID>
 8101588:	f241 0303 	movw	r3, #4099	; 0x1003
 810158c:	4298      	cmp	r0, r3
 810158e:	6b22      	ldr	r2, [r4, #48]	; 0x30
 8101590:	7d60      	ldrb	r0, [r4, #21]
 8101592:	7f21      	ldrb	r1, [r4, #28]
 8101594:	68a3      	ldr	r3, [r4, #8]
 8101596:	f240 8095 	bls.w	81016c4 <HAL_ADC_Init+0x1d0>
 810159a:	2b10      	cmp	r3, #16
 810159c:	f040 8092 	bne.w	81016c4 <HAL_ADC_Init+0x1d0>
 81015a0:	040b      	lsls	r3, r1, #16
 81015a2:	ea43 3340 	orr.w	r3, r3, r0, lsl #13
 81015a6:	4313      	orrs	r3, r2
 81015a8:	f043 031c 	orr.w	r3, r3, #28
 81015ac:	2901      	cmp	r1, #1
 81015ae:	bf02      	ittt	eq
 81015b0:	6a22      	ldreq	r2, [r4, #32]
 81015b2:	f102 32ff 	addeq.w	r2, r2, #4294967295
 81015b6:	ea43 4342 	orreq.w	r3, r3, r2, lsl #17
 81015ba:	6a62      	ldr	r2, [r4, #36]	; 0x24
 81015bc:	b122      	cbz	r2, 81015c8 <HAL_ADC_Init+0xd4>
 81015be:	6aa1      	ldr	r1, [r4, #40]	; 0x28
 81015c0:	f402 7278 	and.w	r2, r2, #992	; 0x3e0
 81015c4:	430a      	orrs	r2, r1
 81015c6:	4313      	orrs	r3, r2
 81015c8:	6820      	ldr	r0, [r4, #0]
 81015ca:	4a48      	ldr	r2, [pc, #288]	; (81016ec <HAL_ADC_Init+0x1f8>)
 81015cc:	68c1      	ldr	r1, [r0, #12]
 81015ce:	400a      	ands	r2, r1
 81015d0:	4313      	orrs	r3, r2
 81015d2:	60c3      	str	r3, [r0, #12]
 81015d4:	f7ff fae1 	bl	8100b9a <LL_ADC_REG_IsConversionOngoing>
 81015d8:	6822      	ldr	r2, [r4, #0]
 81015da:	6893      	ldr	r3, [r2, #8]
 81015dc:	f003 0308 	and.w	r3, r3, #8
 81015e0:	4303      	orrs	r3, r0
 81015e2:	d127      	bne.n	8101634 <HAL_ADC_Init+0x140>
 81015e4:	68d3      	ldr	r3, [r2, #12]
 81015e6:	7d21      	ldrb	r1, [r4, #20]
 81015e8:	f423 4380 	bic.w	r3, r3, #16384	; 0x4000
 81015ec:	f023 0303 	bic.w	r3, r3, #3
 81015f0:	ea43 3381 	orr.w	r3, r3, r1, lsl #14
 81015f4:	6ae1      	ldr	r1, [r4, #44]	; 0x2c
 81015f6:	430b      	orrs	r3, r1
 81015f8:	60d3      	str	r3, [r2, #12]
 81015fa:	f894 3038 	ldrb.w	r3, [r4, #56]	; 0x38
 81015fe:	2b01      	cmp	r3, #1
 8101600:	d166      	bne.n	81016d0 <HAL_ADC_Init+0x1dc>
 8101602:	6be3      	ldr	r3, [r4, #60]	; 0x3c
 8101604:	6910      	ldr	r0, [r2, #16]
 8101606:	1e59      	subs	r1, r3, #1
 8101608:	e9d4 3610 	ldrd	r3, r6, [r4, #64]	; 0x40
 810160c:	4333      	orrs	r3, r6
 810160e:	ea43 4301 	orr.w	r3, r3, r1, lsl #16
 8101612:	6ca1      	ldr	r1, [r4, #72]	; 0x48
 8101614:	430b      	orrs	r3, r1
 8101616:	4936      	ldr	r1, [pc, #216]	; (81016f0 <HAL_ADC_Init+0x1fc>)
 8101618:	4001      	ands	r1, r0
 810161a:	430b      	orrs	r3, r1
 810161c:	f043 0301 	orr.w	r3, r3, #1
 8101620:	6113      	str	r3, [r2, #16]
 8101622:	6913      	ldr	r3, [r2, #16]
 8101624:	6b61      	ldr	r1, [r4, #52]	; 0x34
 8101626:	f023 4370 	bic.w	r3, r3, #4026531840	; 0xf0000000
 810162a:	430b      	orrs	r3, r1
 810162c:	6113      	str	r3, [r2, #16]
 810162e:	4620      	mov	r0, r4
 8101630:	f7ff feca 	bl	81013c8 <ADC_ConfigureBoostMode>
 8101634:	68e3      	ldr	r3, [r4, #12]
 8101636:	6822      	ldr	r2, [r4, #0]
 8101638:	2b01      	cmp	r3, #1
 810163a:	bf05      	ittet	eq
 810163c:	6b11      	ldreq	r1, [r2, #48]	; 0x30
 810163e:	69a3      	ldreq	r3, [r4, #24]
 8101640:	6b13      	ldrne	r3, [r2, #48]	; 0x30
 8101642:	f103 33ff 	addeq.w	r3, r3, #4294967295
 8101646:	bf06      	itte	eq
 8101648:	f021 010f 	biceq.w	r1, r1, #15
 810164c:	430b      	orreq	r3, r1
 810164e:	f023 030f 	bicne.w	r3, r3, #15
 8101652:	6313      	str	r3, [r2, #48]	; 0x30
 8101654:	6d63      	ldr	r3, [r4, #84]	; 0x54
 8101656:	f023 0303 	bic.w	r3, r3, #3
 810165a:	f043 0301 	orr.w	r3, r3, #1
 810165e:	6563      	str	r3, [r4, #84]	; 0x54
 8101660:	4628      	mov	r0, r5
 8101662:	b002      	add	sp, #8
 8101664:	bd70      	pop	{r4, r5, r6, pc}
 8101666:	6883      	ldr	r3, [r0, #8]
 8101668:	4a22      	ldr	r2, [pc, #136]	; (81016f4 <HAL_ADC_Init+0x200>)
 810166a:	f023 4310 	bic.w	r3, r3, #2415919104	; 0x90000000
 810166e:	f023 033f 	bic.w	r3, r3, #63	; 0x3f
 8101672:	f043 5380 	orr.w	r3, r3, #268435456	; 0x10000000
 8101676:	6083      	str	r3, [r0, #8]
 8101678:	4b1f      	ldr	r3, [pc, #124]	; (81016f8 <HAL_ADC_Init+0x204>)
 810167a:	681b      	ldr	r3, [r3, #0]
 810167c:	fbb3 f3f2 	udiv	r3, r3, r2
 8101680:	3301      	adds	r3, #1
 8101682:	9301      	str	r3, [sp, #4]
 8101684:	9b01      	ldr	r3, [sp, #4]
 8101686:	2b00      	cmp	r3, #0
 8101688:	f43f af50 	beq.w	810152c <HAL_ADC_Init+0x38>
 810168c:	9b01      	ldr	r3, [sp, #4]
 810168e:	3b01      	subs	r3, #1
 8101690:	e7f7      	b.n	8101682 <HAL_ADC_Init+0x18e>
 8101692:	2500      	movs	r5, #0
 8101694:	e757      	b.n	8101546 <HAL_ADC_Init+0x52>
 8101696:	4b19      	ldr	r3, [pc, #100]	; (81016fc <HAL_ADC_Init+0x208>)
 8101698:	689b      	ldr	r3, [r3, #8]
 810169a:	07db      	lsls	r3, r3, #31
 810169c:	f53f af72 	bmi.w	8101584 <HAL_ADC_Init+0x90>
 81016a0:	4b17      	ldr	r3, [pc, #92]	; (8101700 <HAL_ADC_Init+0x20c>)
 81016a2:	e006      	b.n	81016b2 <HAL_ADC_Init+0x1be>
 81016a4:	428a      	cmp	r2, r1
 81016a6:	d00b      	beq.n	81016c0 <HAL_ADC_Init+0x1cc>
 81016a8:	4b15      	ldr	r3, [pc, #84]	; (8101700 <HAL_ADC_Init+0x20c>)
 81016aa:	4916      	ldr	r1, [pc, #88]	; (8101704 <HAL_ADC_Init+0x210>)
 81016ac:	4282      	cmp	r2, r0
 81016ae:	bf08      	it	eq
 81016b0:	460b      	moveq	r3, r1
 81016b2:	689a      	ldr	r2, [r3, #8]
 81016b4:	6861      	ldr	r1, [r4, #4]
 81016b6:	f422 127c 	bic.w	r2, r2, #4128768	; 0x3f0000
 81016ba:	430a      	orrs	r2, r1
 81016bc:	609a      	str	r2, [r3, #8]
 81016be:	e761      	b.n	8101584 <HAL_ADC_Init+0x90>
 81016c0:	4b10      	ldr	r3, [pc, #64]	; (8101704 <HAL_ADC_Init+0x210>)
 81016c2:	e7f6      	b.n	81016b2 <HAL_ADC_Init+0x1be>
 81016c4:	4313      	orrs	r3, r2
 81016c6:	ea43 3340 	orr.w	r3, r3, r0, lsl #13
 81016ca:	ea43 4301 	orr.w	r3, r3, r1, lsl #16
 81016ce:	e76d      	b.n	81015ac <HAL_ADC_Init+0xb8>
 81016d0:	6913      	ldr	r3, [r2, #16]
 81016d2:	f023 0301 	bic.w	r3, r3, #1
 81016d6:	e7a3      	b.n	8101620 <HAL_ADC_Init+0x12c>
 81016d8:	f043 0310 	orr.w	r3, r3, #16
 81016dc:	6563      	str	r3, [r4, #84]	; 0x54
 81016de:	2501      	movs	r5, #1
 81016e0:	e7be      	b.n	8101660 <HAL_ADC_Init+0x16c>
 81016e2:	bf00      	nop
 81016e4:	40022000 	.word	0x40022000
 81016e8:	40022100 	.word	0x40022100
 81016ec:	fff0c003 	.word	0xfff0c003
 81016f0:	fc00f81e 	.word	0xfc00f81e
 81016f4:	00030d40 	.word	0x00030d40
 81016f8:	10000000 	.word	0x10000000
 81016fc:	58026000 	.word	0x58026000
 8101700:	58026300 	.word	0x58026300
 8101704:	40022300 	.word	0x40022300

08101708 <LL_ADC_REG_IsConversionOngoing>:
 8101708:	6880      	ldr	r0, [r0, #8]
 810170a:	f3c0 0080 	ubfx	r0, r0, #2, #1
 810170e:	4770      	bx	lr

08101710 <HAL_ADCEx_InjectedConvCpltCallback>:
 8101710:	4770      	bx	lr

08101712 <HAL_ADCEx_InjectedQueueOverflowCallback>:
 8101712:	4770      	bx	lr

08101714 <HAL_ADCEx_LevelOutOfWindow2Callback>:
 8101714:	4770      	bx	lr

08101716 <HAL_ADCEx_LevelOutOfWindow3Callback>:
 8101716:	4770      	bx	lr

08101718 <HAL_ADCEx_EndOfSamplingCallback>:
 8101718:	4770      	bx	lr
	...

0810171c <HAL_ADCEx_MultiModeConfigChannel>:
 810171c:	b5f0      	push	{r4, r5, r6, r7, lr}
 810171e:	f890 2050 	ldrb.w	r2, [r0, #80]	; 0x50
 8101722:	2a01      	cmp	r2, #1
 8101724:	b09b      	sub	sp, #108	; 0x6c
 8101726:	4603      	mov	r3, r0
 8101728:	d072      	beq.n	8101810 <HAL_ADCEx_MultiModeConfigChannel+0xf4>
 810172a:	2201      	movs	r2, #1
 810172c:	f880 2050 	strb.w	r2, [r0, #80]	; 0x50
 8101730:	681d      	ldr	r5, [r3, #0]
 8101732:	4c38      	ldr	r4, [pc, #224]	; (8101814 <HAL_ADCEx_MultiModeConfigChannel+0xf8>)
 8101734:	2000      	movs	r0, #0
 8101736:	42a5      	cmp	r5, r4
 8101738:	9016      	str	r0, [sp, #88]	; 0x58
 810173a:	9017      	str	r0, [sp, #92]	; 0x5c
 810173c:	d008      	beq.n	8101750 <HAL_ADCEx_MultiModeConfigChannel+0x34>
 810173e:	6d59      	ldr	r1, [r3, #84]	; 0x54
 8101740:	f883 0050 	strb.w	r0, [r3, #80]	; 0x50
 8101744:	f041 0120 	orr.w	r1, r1, #32
 8101748:	6559      	str	r1, [r3, #84]	; 0x54
 810174a:	4610      	mov	r0, r2
 810174c:	b01b      	add	sp, #108	; 0x6c
 810174e:	bdf0      	pop	{r4, r5, r6, r7, pc}
 8101750:	4e31      	ldr	r6, [pc, #196]	; (8101818 <HAL_ADCEx_MultiModeConfigChannel+0xfc>)
 8101752:	4630      	mov	r0, r6
 8101754:	f7ff ffd8 	bl	8101708 <LL_ADC_REG_IsConversionOngoing>
 8101758:	4604      	mov	r4, r0
 810175a:	6818      	ldr	r0, [r3, #0]
 810175c:	f7ff ffd4 	bl	8101708 <LL_ADC_REG_IsConversionOngoing>
 8101760:	4320      	orrs	r0, r4
 8101762:	4630      	mov	r0, r6
 8101764:	d14e      	bne.n	8101804 <HAL_ADCEx_MultiModeConfigChannel+0xe8>
 8101766:	681a      	ldr	r2, [r3, #0]
 8101768:	42aa      	cmp	r2, r5
 810176a:	d021      	beq.n	81017b0 <HAL_ADCEx_MultiModeConfigChannel+0x94>
 810176c:	4d2b      	ldr	r5, [pc, #172]	; (810181c <HAL_ADCEx_MultiModeConfigChannel+0x100>)
 810176e:	4c2c      	ldr	r4, [pc, #176]	; (8101820 <HAL_ADCEx_MultiModeConfigChannel+0x104>)
 8101770:	42b2      	cmp	r2, r6
 8101772:	bf18      	it	ne
 8101774:	462c      	movne	r4, r5
 8101776:	f8d1 c000 	ldr.w	ip, [r1]
 810177a:	4f26      	ldr	r7, [pc, #152]	; (8101814 <HAL_ADCEx_MultiModeConfigChannel+0xf8>)
 810177c:	f1bc 0f00 	cmp.w	ip, #0
 8101780:	d026      	beq.n	81017d0 <HAL_ADCEx_MultiModeConfigChannel+0xb4>
 8101782:	68a6      	ldr	r6, [r4, #8]
 8101784:	684d      	ldr	r5, [r1, #4]
 8101786:	f426 4640 	bic.w	r6, r6, #49152	; 0xc000
 810178a:	432e      	orrs	r6, r5
 810178c:	42ba      	cmp	r2, r7
 810178e:	60a6      	str	r6, [r4, #8]
 8101790:	d001      	beq.n	8101796 <HAL_ADCEx_MultiModeConfigChannel+0x7a>
 8101792:	4282      	cmp	r2, r0
 8101794:	d10e      	bne.n	81017b4 <HAL_ADCEx_MultiModeConfigChannel+0x98>
 8101796:	4a1f      	ldr	r2, [pc, #124]	; (8101814 <HAL_ADCEx_MultiModeConfigChannel+0xf8>)
 8101798:	6896      	ldr	r6, [r2, #8]
 810179a:	6882      	ldr	r2, [r0, #8]
 810179c:	4332      	orrs	r2, r6
 810179e:	43d2      	mvns	r2, r2
 81017a0:	f002 0201 	and.w	r2, r2, #1
 81017a4:	b94a      	cbnz	r2, 81017ba <HAL_ADCEx_MultiModeConfigChannel+0x9e>
 81017a6:	2000      	movs	r0, #0
 81017a8:	2200      	movs	r2, #0
 81017aa:	f883 2050 	strb.w	r2, [r3, #80]	; 0x50
 81017ae:	e7cd      	b.n	810174c <HAL_ADCEx_MultiModeConfigChannel+0x30>
 81017b0:	4c1b      	ldr	r4, [pc, #108]	; (8101820 <HAL_ADCEx_MultiModeConfigChannel+0x104>)
 81017b2:	e7e0      	b.n	8101776 <HAL_ADCEx_MultiModeConfigChannel+0x5a>
 81017b4:	4a1b      	ldr	r2, [pc, #108]	; (8101824 <HAL_ADCEx_MultiModeConfigChannel+0x108>)
 81017b6:	6892      	ldr	r2, [r2, #8]
 81017b8:	e7f1      	b.n	810179e <HAL_ADCEx_MultiModeConfigChannel+0x82>
 81017ba:	68a2      	ldr	r2, [r4, #8]
 81017bc:	6889      	ldr	r1, [r1, #8]
 81017be:	f422 6271 	bic.w	r2, r2, #3856	; 0xf10
 81017c2:	ea4c 0501 	orr.w	r5, ip, r1
 81017c6:	f022 020f 	bic.w	r2, r2, #15
 81017ca:	4315      	orrs	r5, r2
 81017cc:	60a5      	str	r5, [r4, #8]
 81017ce:	e7ea      	b.n	81017a6 <HAL_ADCEx_MultiModeConfigChannel+0x8a>
 81017d0:	68a1      	ldr	r1, [r4, #8]
 81017d2:	42ba      	cmp	r2, r7
 81017d4:	f421 4140 	bic.w	r1, r1, #49152	; 0xc000
 81017d8:	60a1      	str	r1, [r4, #8]
 81017da:	d001      	beq.n	81017e0 <HAL_ADCEx_MultiModeConfigChannel+0xc4>
 81017dc:	4282      	cmp	r2, r0
 81017de:	d10e      	bne.n	81017fe <HAL_ADCEx_MultiModeConfigChannel+0xe2>
 81017e0:	68b9      	ldr	r1, [r7, #8]
 81017e2:	6882      	ldr	r2, [r0, #8]
 81017e4:	430a      	orrs	r2, r1
 81017e6:	43d2      	mvns	r2, r2
 81017e8:	f002 0201 	and.w	r2, r2, #1
 81017ec:	2a00      	cmp	r2, #0
 81017ee:	d0da      	beq.n	81017a6 <HAL_ADCEx_MultiModeConfigChannel+0x8a>
 81017f0:	68a2      	ldr	r2, [r4, #8]
 81017f2:	f422 6271 	bic.w	r2, r2, #3856	; 0xf10
 81017f6:	f022 020f 	bic.w	r2, r2, #15
 81017fa:	60a2      	str	r2, [r4, #8]
 81017fc:	e7d3      	b.n	81017a6 <HAL_ADCEx_MultiModeConfigChannel+0x8a>
 81017fe:	4a09      	ldr	r2, [pc, #36]	; (8101824 <HAL_ADCEx_MultiModeConfigChannel+0x108>)
 8101800:	6892      	ldr	r2, [r2, #8]
 8101802:	e7f0      	b.n	81017e6 <HAL_ADCEx_MultiModeConfigChannel+0xca>
 8101804:	6d59      	ldr	r1, [r3, #84]	; 0x54
 8101806:	f041 0120 	orr.w	r1, r1, #32
 810180a:	6559      	str	r1, [r3, #84]	; 0x54
 810180c:	4610      	mov	r0, r2
 810180e:	e7cb      	b.n	81017a8 <HAL_ADCEx_MultiModeConfigChannel+0x8c>
 8101810:	2002      	movs	r0, #2
 8101812:	e79b      	b.n	810174c <HAL_ADCEx_MultiModeConfigChannel+0x30>
 8101814:	40022000 	.word	0x40022000
 8101818:	40022100 	.word	0x40022100
 810181c:	58026300 	.word	0x58026300
 8101820:	40022300 	.word	0x40022300
 8101824:	58026000 	.word	0x58026000

08101828 <HAL_NVIC_SetPriorityGrouping>:
 8101828:	4907      	ldr	r1, [pc, #28]	; (8101848 <HAL_NVIC_SetPriorityGrouping+0x20>)
 810182a:	68ca      	ldr	r2, [r1, #12]
 810182c:	f422 62e0 	bic.w	r2, r2, #1792	; 0x700
 8101830:	0203      	lsls	r3, r0, #8
 8101832:	0412      	lsls	r2, r2, #16
 8101834:	f403 63e0 	and.w	r3, r3, #1792	; 0x700
 8101838:	0c12      	lsrs	r2, r2, #16
 810183a:	4313      	orrs	r3, r2
 810183c:	f043 63bf 	orr.w	r3, r3, #100139008	; 0x5f80000
 8101840:	f443 3300 	orr.w	r3, r3, #131072	; 0x20000
 8101844:	60cb      	str	r3, [r1, #12]
 8101846:	4770      	bx	lr
 8101848:	e000ed00 	.word	0xe000ed00

0810184c <HAL_NVIC_SetPriority>:
 810184c:	4b16      	ldr	r3, [pc, #88]	; (81018a8 <HAL_NVIC_SetPriority+0x5c>)
 810184e:	b530      	push	{r4, r5, lr}
 8101850:	68dc      	ldr	r4, [r3, #12]
 8101852:	f3c4 2402 	ubfx	r4, r4, #8, #3
 8101856:	f1c4 0507 	rsb	r5, r4, #7
 810185a:	1d23      	adds	r3, r4, #4
 810185c:	2d04      	cmp	r5, #4
 810185e:	bf28      	it	cs
 8101860:	2504      	movcs	r5, #4
 8101862:	2b06      	cmp	r3, #6
 8101864:	f04f 33ff 	mov.w	r3, #4294967295
 8101868:	bf8c      	ite	hi
 810186a:	3c03      	subhi	r4, #3
 810186c:	2400      	movls	r4, #0
 810186e:	fa03 f505 	lsl.w	r5, r3, r5
 8101872:	ea21 0105 	bic.w	r1, r1, r5
 8101876:	40a3      	lsls	r3, r4
 8101878:	ea22 0203 	bic.w	r2, r2, r3
 810187c:	40a1      	lsls	r1, r4
 810187e:	2800      	cmp	r0, #0
 8101880:	ea41 0302 	orr.w	r3, r1, r2
 8101884:	bfac      	ite	ge
 8101886:	f100 4060 	addge.w	r0, r0, #3758096384	; 0xe0000000
 810188a:	4a08      	ldrlt	r2, [pc, #32]	; (81018ac <HAL_NVIC_SetPriority+0x60>)
 810188c:	ea4f 1303 	mov.w	r3, r3, lsl #4
 8101890:	bfb8      	it	lt
 8101892:	f000 000f 	andlt.w	r0, r0, #15
 8101896:	b2db      	uxtb	r3, r3
 8101898:	bfaa      	itet	ge
 810189a:	f500 4061 	addge.w	r0, r0, #57600	; 0xe100
 810189e:	5413      	strblt	r3, [r2, r0]
 81018a0:	f880 3300 	strbge.w	r3, [r0, #768]	; 0x300
 81018a4:	bd30      	pop	{r4, r5, pc}
 81018a6:	bf00      	nop
 81018a8:	e000ed00 	.word	0xe000ed00
 81018ac:	e000ed14 	.word	0xe000ed14

081018b0 <HAL_NVIC_EnableIRQ>:
 81018b0:	2800      	cmp	r0, #0
 81018b2:	db08      	blt.n	81018c6 <HAL_NVIC_EnableIRQ+0x16>
 81018b4:	2301      	movs	r3, #1
 81018b6:	0942      	lsrs	r2, r0, #5
 81018b8:	f000 001f 	and.w	r0, r0, #31
 81018bc:	fa03 f000 	lsl.w	r0, r3, r0
 81018c0:	4b01      	ldr	r3, [pc, #4]	; (81018c8 <HAL_NVIC_EnableIRQ+0x18>)
 81018c2:	f843 0022 	str.w	r0, [r3, r2, lsl #2]
 81018c6:	4770      	bx	lr
 81018c8:	e000e100 	.word	0xe000e100

081018cc <HAL_SYSTICK_Config>:
 81018cc:	3801      	subs	r0, #1
 81018ce:	f1b0 7f80 	cmp.w	r0, #16777216	; 0x1000000
 81018d2:	d20a      	bcs.n	81018ea <HAL_SYSTICK_Config+0x1e>
 81018d4:	4b06      	ldr	r3, [pc, #24]	; (81018f0 <HAL_SYSTICK_Config+0x24>)
 81018d6:	4a07      	ldr	r2, [pc, #28]	; (81018f4 <HAL_SYSTICK_Config+0x28>)
 81018d8:	6058      	str	r0, [r3, #4]
 81018da:	21f0      	movs	r1, #240	; 0xf0
 81018dc:	f882 1023 	strb.w	r1, [r2, #35]	; 0x23
 81018e0:	2000      	movs	r0, #0
 81018e2:	2207      	movs	r2, #7
 81018e4:	6098      	str	r0, [r3, #8]
 81018e6:	601a      	str	r2, [r3, #0]
 81018e8:	4770      	bx	lr
 81018ea:	2001      	movs	r0, #1
 81018ec:	4770      	bx	lr
 81018ee:	bf00      	nop
 81018f0:	e000e010 	.word	0xe000e010
 81018f4:	e000ed00 	.word	0xe000ed00

081018f8 <HAL_GetCurrentCPUID>:
 81018f8:	4b04      	ldr	r3, [pc, #16]	; (810190c <HAL_GetCurrentCPUID+0x14>)
 81018fa:	681b      	ldr	r3, [r3, #0]
 81018fc:	f3c3 1303 	ubfx	r3, r3, #4, #4
 8101900:	2b07      	cmp	r3, #7
 8101902:	bf0c      	ite	eq
 8101904:	2003      	moveq	r0, #3
 8101906:	2001      	movne	r0, #1
 8101908:	4770      	bx	lr
 810190a:	bf00      	nop
 810190c:	e000ed00 	.word	0xe000ed00

08101910 <HAL_GPIO_Init>:
 8101910:	e92d 4ff7 	stmdb	sp!, {r0, r1, r2, r4, r5, r6, r7, r8, r9, sl, fp, lr}
 8101914:	f8df c1b8 	ldr.w	ip, [pc, #440]	; 8101ad0 <HAL_GPIO_Init+0x1c0>
 8101918:	f8df 81b8 	ldr.w	r8, [pc, #440]	; 8101ad4 <HAL_GPIO_Init+0x1c4>
 810191c:	2300      	movs	r3, #0
 810191e:	f04f 49b0 	mov.w	r9, #1476395008	; 0x58000000
 8101922:	680a      	ldr	r2, [r1, #0]
 8101924:	fa32 f403 	lsrs.w	r4, r2, r3
 8101928:	d102      	bne.n	8101930 <HAL_GPIO_Init+0x20>
 810192a:	b003      	add	sp, #12
 810192c:	e8bd 8ff0 	ldmia.w	sp!, {r4, r5, r6, r7, r8, r9, sl, fp, pc}
 8101930:	2701      	movs	r7, #1
 8101932:	409f      	lsls	r7, r3
 8101934:	403a      	ands	r2, r7
 8101936:	f000 80b5 	beq.w	8101aa4 <HAL_GPIO_Init+0x194>
 810193a:	684c      	ldr	r4, [r1, #4]
 810193c:	f024 0a10 	bic.w	sl, r4, #16
 8101940:	ea4f 0e43 	mov.w	lr, r3, lsl #1
 8101944:	2503      	movs	r5, #3
 8101946:	f10a 36ff 	add.w	r6, sl, #4294967295
 810194a:	fa05 f50e 	lsl.w	r5, r5, lr
 810194e:	2e01      	cmp	r6, #1
 8101950:	ea6f 0505 	mvn.w	r5, r5
 8101954:	d810      	bhi.n	8101978 <HAL_GPIO_Init+0x68>
 8101956:	6886      	ldr	r6, [r0, #8]
 8101958:	ea06 0b05 	and.w	fp, r6, r5
 810195c:	68ce      	ldr	r6, [r1, #12]
 810195e:	fa06 f60e 	lsl.w	r6, r6, lr
 8101962:	ea46 060b 	orr.w	r6, r6, fp
 8101966:	6086      	str	r6, [r0, #8]
 8101968:	6846      	ldr	r6, [r0, #4]
 810196a:	ea26 0707 	bic.w	r7, r6, r7
 810196e:	f3c4 1600 	ubfx	r6, r4, #4, #1
 8101972:	409e      	lsls	r6, r3
 8101974:	4337      	orrs	r7, r6
 8101976:	6047      	str	r7, [r0, #4]
 8101978:	68c7      	ldr	r7, [r0, #12]
 810197a:	688e      	ldr	r6, [r1, #8]
 810197c:	402f      	ands	r7, r5
 810197e:	fa06 f60e 	lsl.w	r6, r6, lr
 8101982:	433e      	orrs	r6, r7
 8101984:	f1ba 0f02 	cmp.w	sl, #2
 8101988:	60c6      	str	r6, [r0, #12]
 810198a:	d114      	bne.n	81019b6 <HAL_GPIO_Init+0xa6>
 810198c:	ea4f 0ad3 	mov.w	sl, r3, lsr #3
 8101990:	eb00 0a8a 	add.w	sl, r0, sl, lsl #2
 8101994:	f003 0b07 	and.w	fp, r3, #7
 8101998:	f8da 6020 	ldr.w	r6, [sl, #32]
 810199c:	ea4f 0b8b 	mov.w	fp, fp, lsl #2
 81019a0:	270f      	movs	r7, #15
 81019a2:	fa07 f70b 	lsl.w	r7, r7, fp
 81019a6:	ea26 0707 	bic.w	r7, r6, r7
 81019aa:	690e      	ldr	r6, [r1, #16]
 81019ac:	fa06 f60b 	lsl.w	r6, r6, fp
 81019b0:	433e      	orrs	r6, r7
 81019b2:	f8ca 6020 	str.w	r6, [sl, #32]
 81019b6:	6806      	ldr	r6, [r0, #0]
 81019b8:	4035      	ands	r5, r6
 81019ba:	f004 0603 	and.w	r6, r4, #3
 81019be:	fa06 fe0e 	lsl.w	lr, r6, lr
 81019c2:	ea4e 0505 	orr.w	r5, lr, r5
 81019c6:	6005      	str	r5, [r0, #0]
 81019c8:	00e5      	lsls	r5, r4, #3
 81019ca:	d56b      	bpl.n	8101aa4 <HAL_GPIO_Init+0x194>
 81019cc:	f8d8 50f4 	ldr.w	r5, [r8, #244]	; 0xf4
 81019d0:	f045 0502 	orr.w	r5, r5, #2
 81019d4:	f8c8 50f4 	str.w	r5, [r8, #244]	; 0xf4
 81019d8:	f8d8 50f4 	ldr.w	r5, [r8, #244]	; 0xf4
 81019dc:	f023 0603 	bic.w	r6, r3, #3
 81019e0:	f106 46b0 	add.w	r6, r6, #1476395008	; 0x58000000
 81019e4:	f005 0502 	and.w	r5, r5, #2
 81019e8:	f506 6680 	add.w	r6, r6, #1024	; 0x400
 81019ec:	9501      	str	r5, [sp, #4]
 81019ee:	f003 0703 	and.w	r7, r3, #3
 81019f2:	9d01      	ldr	r5, [sp, #4]
 81019f4:	f8d6 a008 	ldr.w	sl, [r6, #8]
 81019f8:	f04f 0e0f 	mov.w	lr, #15
 81019fc:	00bf      	lsls	r7, r7, #2
 81019fe:	fa0e f507 	lsl.w	r5, lr, r7
 8101a02:	ea2a 0e05 	bic.w	lr, sl, r5
 8101a06:	4d31      	ldr	r5, [pc, #196]	; (8101acc <HAL_GPIO_Init+0x1bc>)
 8101a08:	42a8      	cmp	r0, r5
 8101a0a:	d04d      	beq.n	8101aa8 <HAL_GPIO_Init+0x198>
 8101a0c:	f505 6580 	add.w	r5, r5, #1024	; 0x400
 8101a10:	42a8      	cmp	r0, r5
 8101a12:	d04b      	beq.n	8101aac <HAL_GPIO_Init+0x19c>
 8101a14:	f505 6580 	add.w	r5, r5, #1024	; 0x400
 8101a18:	42a8      	cmp	r0, r5
 8101a1a:	d049      	beq.n	8101ab0 <HAL_GPIO_Init+0x1a0>
 8101a1c:	f505 6580 	add.w	r5, r5, #1024	; 0x400
 8101a20:	42a8      	cmp	r0, r5
 8101a22:	d047      	beq.n	8101ab4 <HAL_GPIO_Init+0x1a4>
 8101a24:	f505 6580 	add.w	r5, r5, #1024	; 0x400
 8101a28:	42a8      	cmp	r0, r5
 8101a2a:	d045      	beq.n	8101ab8 <HAL_GPIO_Init+0x1a8>
 8101a2c:	f505 6580 	add.w	r5, r5, #1024	; 0x400
 8101a30:	42a8      	cmp	r0, r5
 8101a32:	d043      	beq.n	8101abc <HAL_GPIO_Init+0x1ac>
 8101a34:	f505 6580 	add.w	r5, r5, #1024	; 0x400
 8101a38:	42a8      	cmp	r0, r5
 8101a3a:	d041      	beq.n	8101ac0 <HAL_GPIO_Init+0x1b0>
 8101a3c:	f505 6580 	add.w	r5, r5, #1024	; 0x400
 8101a40:	42a8      	cmp	r0, r5
 8101a42:	d03f      	beq.n	8101ac4 <HAL_GPIO_Init+0x1b4>
 8101a44:	f505 6580 	add.w	r5, r5, #1024	; 0x400
 8101a48:	42a8      	cmp	r0, r5
 8101a4a:	d03d      	beq.n	8101ac8 <HAL_GPIO_Init+0x1b8>
 8101a4c:	f505 6580 	add.w	r5, r5, #1024	; 0x400
 8101a50:	42a8      	cmp	r0, r5
 8101a52:	bf0c      	ite	eq
 8101a54:	2509      	moveq	r5, #9
 8101a56:	250a      	movne	r5, #10
 8101a58:	40bd      	lsls	r5, r7
 8101a5a:	ea45 050e 	orr.w	r5, r5, lr
 8101a5e:	60b5      	str	r5, [r6, #8]
 8101a60:	f8dc 5000 	ldr.w	r5, [ip]
 8101a64:	03e7      	lsls	r7, r4, #15
 8101a66:	ea6f 0602 	mvn.w	r6, r2
 8101a6a:	bf54      	ite	pl
 8101a6c:	4035      	andpl	r5, r6
 8101a6e:	4315      	orrmi	r5, r2
 8101a70:	f8cc 5000 	str.w	r5, [ip]
 8101a74:	f8dc 5004 	ldr.w	r5, [ip, #4]
 8101a78:	03a7      	lsls	r7, r4, #14
 8101a7a:	bf54      	ite	pl
 8101a7c:	4035      	andpl	r5, r6
 8101a7e:	4315      	orrmi	r5, r2
 8101a80:	f8cc 5004 	str.w	r5, [ip, #4]
 8101a84:	f8d9 5000 	ldr.w	r5, [r9]
 8101a88:	02e7      	lsls	r7, r4, #11
 8101a8a:	f04f 47b0 	mov.w	r7, #1476395008	; 0x58000000
 8101a8e:	bf54      	ite	pl
 8101a90:	4035      	andpl	r5, r6
 8101a92:	4315      	orrmi	r5, r2
 8101a94:	603d      	str	r5, [r7, #0]
 8101a96:	687d      	ldr	r5, [r7, #4]
 8101a98:	02a4      	lsls	r4, r4, #10
 8101a9a:	bf54      	ite	pl
 8101a9c:	4035      	andpl	r5, r6
 8101a9e:	4315      	orrmi	r5, r2
 8101aa0:	f8c9 5004 	str.w	r5, [r9, #4]
 8101aa4:	3301      	adds	r3, #1
 8101aa6:	e73c      	b.n	8101922 <HAL_GPIO_Init+0x12>
 8101aa8:	2500      	movs	r5, #0
 8101aaa:	e7d5      	b.n	8101a58 <HAL_GPIO_Init+0x148>
 8101aac:	2501      	movs	r5, #1
 8101aae:	e7d3      	b.n	8101a58 <HAL_GPIO_Init+0x148>
 8101ab0:	2502      	movs	r5, #2
 8101ab2:	e7d1      	b.n	8101a58 <HAL_GPIO_Init+0x148>
 8101ab4:	2503      	movs	r5, #3
 8101ab6:	e7cf      	b.n	8101a58 <HAL_GPIO_Init+0x148>
 8101ab8:	2504      	movs	r5, #4
 8101aba:	e7cd      	b.n	8101a58 <HAL_GPIO_Init+0x148>
 8101abc:	2505      	movs	r5, #5
 8101abe:	e7cb      	b.n	8101a58 <HAL_GPIO_Init+0x148>
 8101ac0:	2506      	movs	r5, #6
 8101ac2:	e7c9      	b.n	8101a58 <HAL_GPIO_Init+0x148>
 8101ac4:	2507      	movs	r5, #7
 8101ac6:	e7c7      	b.n	8101a58 <HAL_GPIO_Init+0x148>
 8101ac8:	2508      	movs	r5, #8
 8101aca:	e7c5      	b.n	8101a58 <HAL_GPIO_Init+0x148>
 8101acc:	58020000 	.word	0x58020000
 8101ad0:	580000c0 	.word	0x580000c0
 8101ad4:	58024400 	.word	0x58024400

08101ad8 <HAL_GPIO_WritePin>:
 8101ad8:	b10a      	cbz	r2, 8101ade <HAL_GPIO_WritePin+0x6>
 8101ada:	6181      	str	r1, [r0, #24]
 8101adc:	4770      	bx	lr
 8101ade:	0409      	lsls	r1, r1, #16
 8101ae0:	e7fb      	b.n	8101ada <HAL_GPIO_WritePin+0x2>
	...

08101ae4 <HAL_HSEM_ActivateNotification>:
 8101ae4:	4a02      	ldr	r2, [pc, #8]	; (8101af0 <HAL_HSEM_ActivateNotification+0xc>)
 8101ae6:	6813      	ldr	r3, [r2, #0]
 8101ae8:	4318      	orrs	r0, r3
 8101aea:	6010      	str	r0, [r2, #0]
 8101aec:	4770      	bx	lr
 8101aee:	bf00      	nop
 8101af0:	58026510 	.word	0x58026510

08101af4 <HAL_PWREx_EnterSTOPMode>:
 8101af4:	b538      	push	{r3, r4, r5, lr}
 8101af6:	4c1e      	ldr	r4, [pc, #120]	; (8101b70 <HAL_PWREx_EnterSTOPMode+0x7c>)
 8101af8:	6823      	ldr	r3, [r4, #0]
 8101afa:	f023 0301 	bic.w	r3, r3, #1
 8101afe:	4318      	orrs	r0, r3
 8101b00:	460d      	mov	r5, r1
 8101b02:	6020      	str	r0, [r4, #0]
 8101b04:	b9c2      	cbnz	r2, 8101b38 <HAL_PWREx_EnterSTOPMode+0x44>
 8101b06:	f7ff fef7 	bl	81018f8 <HAL_GetCurrentCPUID>
 8101b0a:	2803      	cmp	r0, #3
 8101b0c:	d113      	bne.n	8101b36 <HAL_PWREx_EnterSTOPMode+0x42>
 8101b0e:	6923      	ldr	r3, [r4, #16]
 8101b10:	f023 0301 	bic.w	r3, r3, #1
 8101b14:	6123      	str	r3, [r4, #16]
 8101b16:	4b17      	ldr	r3, [pc, #92]	; (8101b74 <HAL_PWREx_EnterSTOPMode+0x80>)
 8101b18:	691a      	ldr	r2, [r3, #16]
 8101b1a:	f042 0204 	orr.w	r2, r2, #4
 8101b1e:	611a      	str	r2, [r3, #16]
 8101b20:	f3bf 8f4f 	dsb	sy
 8101b24:	f3bf 8f6f 	isb	sy
 8101b28:	2d01      	cmp	r5, #1
 8101b2a:	d110      	bne.n	8101b4e <HAL_PWREx_EnterSTOPMode+0x5a>
 8101b2c:	bf30      	wfi
 8101b2e:	691a      	ldr	r2, [r3, #16]
 8101b30:	f022 0204 	bic.w	r2, r2, #4
 8101b34:	611a      	str	r2, [r3, #16]
 8101b36:	bd38      	pop	{r3, r4, r5, pc}
 8101b38:	2a01      	cmp	r2, #1
 8101b3a:	d10a      	bne.n	8101b52 <HAL_PWREx_EnterSTOPMode+0x5e>
 8101b3c:	f7ff fedc 	bl	81018f8 <HAL_GetCurrentCPUID>
 8101b40:	2801      	cmp	r0, #1
 8101b42:	d1f8      	bne.n	8101b36 <HAL_PWREx_EnterSTOPMode+0x42>
 8101b44:	6963      	ldr	r3, [r4, #20]
 8101b46:	f023 0302 	bic.w	r3, r3, #2
 8101b4a:	6163      	str	r3, [r4, #20]
 8101b4c:	e7e3      	b.n	8101b16 <HAL_PWREx_EnterSTOPMode+0x22>
 8101b4e:	bf20      	wfe
 8101b50:	e7ed      	b.n	8101b2e <HAL_PWREx_EnterSTOPMode+0x3a>
 8101b52:	f7ff fed1 	bl	81018f8 <HAL_GetCurrentCPUID>
 8101b56:	2803      	cmp	r0, #3
 8101b58:	bf0b      	itete	eq
 8101b5a:	6923      	ldreq	r3, [r4, #16]
 8101b5c:	6963      	ldrne	r3, [r4, #20]
 8101b5e:	f023 0304 	biceq.w	r3, r3, #4
 8101b62:	f023 0304 	bicne.w	r3, r3, #4
 8101b66:	bf0c      	ite	eq
 8101b68:	6123      	streq	r3, [r4, #16]
 8101b6a:	6163      	strne	r3, [r4, #20]
 8101b6c:	e7e3      	b.n	8101b36 <HAL_PWREx_EnterSTOPMode+0x42>
 8101b6e:	bf00      	nop
 8101b70:	58024800 	.word	0x58024800
 8101b74:	e000ed00 	.word	0xe000ed00

08101b78 <HAL_PWREx_ClearPendingEvent>:
 8101b78:	b508      	push	{r3, lr}
 8101b7a:	f7ff febd 	bl	81018f8 <HAL_GetCurrentCPUID>
 8101b7e:	2803      	cmp	r0, #3
 8101b80:	d101      	bne.n	8101b86 <HAL_PWREx_ClearPendingEvent+0xe>
 8101b82:	bf20      	wfe
 8101b84:	bd08      	pop	{r3, pc}
 8101b86:	bf40      	sev
 8101b88:	e7fb      	b.n	8101b82 <HAL_PWREx_ClearPendingEvent+0xa>
	...

08101b8c <HAL_RCC_GetSysClockFreq>:
 8101b8c:	4b48      	ldr	r3, [pc, #288]	; (8101cb0 <HAL_RCC_GetSysClockFreq+0x124>)
 8101b8e:	691a      	ldr	r2, [r3, #16]
 8101b90:	f002 0238 	and.w	r2, r2, #56	; 0x38
 8101b94:	2a10      	cmp	r2, #16
 8101b96:	b530      	push	{r4, r5, lr}
 8101b98:	f000 8086 	beq.w	8101ca8 <HAL_RCC_GetSysClockFreq+0x11c>
 8101b9c:	2a18      	cmp	r2, #24
 8101b9e:	d00c      	beq.n	8101bba <HAL_RCC_GetSysClockFreq+0x2e>
 8101ba0:	2a00      	cmp	r2, #0
 8101ba2:	f040 8083 	bne.w	8101cac <HAL_RCC_GetSysClockFreq+0x120>
 8101ba6:	681a      	ldr	r2, [r3, #0]
 8101ba8:	4842      	ldr	r0, [pc, #264]	; (8101cb4 <HAL_RCC_GetSysClockFreq+0x128>)
 8101baa:	f012 0f20 	tst.w	r2, #32
 8101bae:	d003      	beq.n	8101bb8 <HAL_RCC_GetSysClockFreq+0x2c>
 8101bb0:	681b      	ldr	r3, [r3, #0]
 8101bb2:	f3c3 03c1 	ubfx	r3, r3, #3, #2
 8101bb6:	40d8      	lsrs	r0, r3
 8101bb8:	bd30      	pop	{r4, r5, pc}
 8101bba:	6a99      	ldr	r1, [r3, #40]	; 0x28
 8101bbc:	6a9d      	ldr	r5, [r3, #40]	; 0x28
 8101bbe:	6ada      	ldr	r2, [r3, #44]	; 0x2c
 8101bc0:	6b5c      	ldr	r4, [r3, #52]	; 0x34
 8101bc2:	f415 7f7c 	tst.w	r5, #1008	; 0x3f0
 8101bc6:	f3c5 1005 	ubfx	r0, r5, #4, #6
 8101bca:	d0f5      	beq.n	8101bb8 <HAL_RCC_GetSysClockFreq+0x2c>
 8101bcc:	ee07 0a90 	vmov	s15, r0
 8101bd0:	f3c4 04cc 	ubfx	r4, r4, #3, #13
 8101bd4:	f002 0201 	and.w	r2, r2, #1
 8101bd8:	4362      	muls	r2, r4
 8101bda:	eef8 6ae7 	vcvt.f32.s32	s13, s15
 8101bde:	f001 0103 	and.w	r1, r1, #3
 8101be2:	ee07 2a90 	vmov	s15, r2
 8101be6:	2901      	cmp	r1, #1
 8101be8:	eefa 7ae9 	vcvt.f32.s32	s15, s15, #13
 8101bec:	eeb7 6a00 	vmov.f32	s12, #112	; 0x3f800000  1.0
 8101bf0:	d04c      	beq.n	8101c8c <HAL_RCC_GetSysClockFreq+0x100>
 8101bf2:	2902      	cmp	r1, #2
 8101bf4:	d03c      	beq.n	8101c70 <HAL_RCC_GetSysClockFreq+0xe4>
 8101bf6:	2900      	cmp	r1, #0
 8101bf8:	d148      	bne.n	8101c8c <HAL_RCC_GetSysClockFreq+0x100>
 8101bfa:	681a      	ldr	r2, [r3, #0]
 8101bfc:	0692      	lsls	r2, r2, #26
 8101bfe:	d527      	bpl.n	8101c50 <HAL_RCC_GetSysClockFreq+0xc4>
 8101c00:	6819      	ldr	r1, [r3, #0]
 8101c02:	4a2c      	ldr	r2, [pc, #176]	; (8101cb4 <HAL_RCC_GetSysClockFreq+0x128>)
 8101c04:	6b1b      	ldr	r3, [r3, #48]	; 0x30
 8101c06:	f3c1 01c1 	ubfx	r1, r1, #3, #2
 8101c0a:	40ca      	lsrs	r2, r1
 8101c0c:	ee07 2a10 	vmov	s14, r2
 8101c10:	eef8 5ac7 	vcvt.f32.s32	s11, s14
 8101c14:	f3c3 0308 	ubfx	r3, r3, #0, #9
 8101c18:	ee85 7aa6 	vdiv.f32	s14, s11, s13
 8101c1c:	ee06 3a90 	vmov	s13, r3
 8101c20:	eef8 6ae6 	vcvt.f32.s32	s13, s13
 8101c24:	ee76 7aa7 	vadd.f32	s15, s13, s15
 8101c28:	ee77 7a86 	vadd.f32	s15, s15, s12
 8101c2c:	4b20      	ldr	r3, [pc, #128]	; (8101cb0 <HAL_RCC_GetSysClockFreq+0x124>)
 8101c2e:	6b1b      	ldr	r3, [r3, #48]	; 0x30
 8101c30:	f3c3 2346 	ubfx	r3, r3, #9, #7
 8101c34:	3301      	adds	r3, #1
 8101c36:	ee67 7a87 	vmul.f32	s15, s15, s14
 8101c3a:	ee07 3a10 	vmov	s14, r3
 8101c3e:	eef8 6ac7 	vcvt.f32.s32	s13, s14
 8101c42:	ee87 7aa6 	vdiv.f32	s14, s15, s13
 8101c46:	eefc 7ac7 	vcvt.u32.f32	s15, s14
 8101c4a:	ee17 0a90 	vmov	r0, s15
 8101c4e:	e7b3      	b.n	8101bb8 <HAL_RCC_GetSysClockFreq+0x2c>
 8101c50:	6b1b      	ldr	r3, [r3, #48]	; 0x30
 8101c52:	f3c3 0308 	ubfx	r3, r3, #0, #9
 8101c56:	ee07 3a10 	vmov	s14, r3
 8101c5a:	eeb8 7ac7 	vcvt.f32.s32	s14, s14
 8101c5e:	ee77 7a27 	vadd.f32	s15, s14, s15
 8101c62:	ee77 7a86 	vadd.f32	s15, s15, s12
 8101c66:	ed9f 6a14 	vldr	s12, [pc, #80]	; 8101cb8 <HAL_RCC_GetSysClockFreq+0x12c>
 8101c6a:	ee86 7a26 	vdiv.f32	s14, s12, s13
 8101c6e:	e7dd      	b.n	8101c2c <HAL_RCC_GetSysClockFreq+0xa0>
 8101c70:	6b1b      	ldr	r3, [r3, #48]	; 0x30
 8101c72:	f3c3 0308 	ubfx	r3, r3, #0, #9
 8101c76:	ee07 3a10 	vmov	s14, r3
 8101c7a:	eeb8 7ac7 	vcvt.f32.s32	s14, s14
 8101c7e:	ee77 7a27 	vadd.f32	s15, s14, s15
 8101c82:	ee77 7a86 	vadd.f32	s15, s15, s12
 8101c86:	ed9f 6a0d 	vldr	s12, [pc, #52]	; 8101cbc <HAL_RCC_GetSysClockFreq+0x130>
 8101c8a:	e7ee      	b.n	8101c6a <HAL_RCC_GetSysClockFreq+0xde>
 8101c8c:	6b1b      	ldr	r3, [r3, #48]	; 0x30
 8101c8e:	f3c3 0308 	ubfx	r3, r3, #0, #9
 8101c92:	ee07 3a10 	vmov	s14, r3
 8101c96:	eeb8 7ac7 	vcvt.f32.s32	s14, s14
 8101c9a:	ee77 7a27 	vadd.f32	s15, s14, s15
 8101c9e:	ee77 7a86 	vadd.f32	s15, s15, s12
 8101ca2:	ed9f 6a07 	vldr	s12, [pc, #28]	; 8101cc0 <HAL_RCC_GetSysClockFreq+0x134>
 8101ca6:	e7e0      	b.n	8101c6a <HAL_RCC_GetSysClockFreq+0xde>
 8101ca8:	4806      	ldr	r0, [pc, #24]	; (8101cc4 <HAL_RCC_GetSysClockFreq+0x138>)
 8101caa:	e785      	b.n	8101bb8 <HAL_RCC_GetSysClockFreq+0x2c>
 8101cac:	4806      	ldr	r0, [pc, #24]	; (8101cc8 <HAL_RCC_GetSysClockFreq+0x13c>)
 8101cae:	e783      	b.n	8101bb8 <HAL_RCC_GetSysClockFreq+0x2c>
 8101cb0:	58024400 	.word	0x58024400
 8101cb4:	03d09000 	.word	0x03d09000
 8101cb8:	4c742400 	.word	0x4c742400
 8101cbc:	4af42400 	.word	0x4af42400
 8101cc0:	4a742400 	.word	0x4a742400
 8101cc4:	007a1200 	.word	0x007a1200
 8101cc8:	003d0900 	.word	0x003d0900

08101ccc <HAL_RCC_GetHCLKFreq>:
 8101ccc:	b508      	push	{r3, lr}
 8101cce:	f7ff ff5d 	bl	8101b8c <HAL_RCC_GetSysClockFreq>
 8101cd2:	4b0a      	ldr	r3, [pc, #40]	; (8101cfc <HAL_RCC_GetHCLKFreq+0x30>)
 8101cd4:	490a      	ldr	r1, [pc, #40]	; (8101d00 <HAL_RCC_GetHCLKFreq+0x34>)
 8101cd6:	699a      	ldr	r2, [r3, #24]
 8101cd8:	699b      	ldr	r3, [r3, #24]
 8101cda:	f3c2 2203 	ubfx	r2, r2, #8, #4
 8101cde:	f003 030f 	and.w	r3, r3, #15
 8101ce2:	5c8a      	ldrb	r2, [r1, r2]
 8101ce4:	5ccb      	ldrb	r3, [r1, r3]
 8101ce6:	f002 021f 	and.w	r2, r2, #31
 8101cea:	40d0      	lsrs	r0, r2
 8101cec:	f003 031f 	and.w	r3, r3, #31
 8101cf0:	40d8      	lsrs	r0, r3
 8101cf2:	4b04      	ldr	r3, [pc, #16]	; (8101d04 <HAL_RCC_GetHCLKFreq+0x38>)
 8101cf4:	6018      	str	r0, [r3, #0]
 8101cf6:	4b04      	ldr	r3, [pc, #16]	; (8101d08 <HAL_RCC_GetHCLKFreq+0x3c>)
 8101cf8:	6018      	str	r0, [r3, #0]
 8101cfa:	bd08      	pop	{r3, pc}
 8101cfc:	58024400 	.word	0x58024400
 8101d00:	08103ae4 	.word	0x08103ae4
 8101d04:	10000004 	.word	0x10000004
 8101d08:	10000000 	.word	0x10000000

08101d0c <RCCEx_PLL2_Config>:
 8101d0c:	b5f8      	push	{r3, r4, r5, r6, r7, lr}
 8101d0e:	4c3a      	ldr	r4, [pc, #232]	; (8101df8 <RCCEx_PLL2_Config+0xec>)
 8101d10:	6aa3      	ldr	r3, [r4, #40]	; 0x28
 8101d12:	f003 0303 	and.w	r3, r3, #3
 8101d16:	2b03      	cmp	r3, #3
 8101d18:	4606      	mov	r6, r0
 8101d1a:	460d      	mov	r5, r1
 8101d1c:	d069      	beq.n	8101df2 <RCCEx_PLL2_Config+0xe6>
 8101d1e:	6823      	ldr	r3, [r4, #0]
 8101d20:	f023 6380 	bic.w	r3, r3, #67108864	; 0x4000000
 8101d24:	6023      	str	r3, [r4, #0]
 8101d26:	f7fe ff1b 	bl	8100b60 <HAL_GetTick>
 8101d2a:	4607      	mov	r7, r0
 8101d2c:	6823      	ldr	r3, [r4, #0]
 8101d2e:	011a      	lsls	r2, r3, #4
 8101d30:	d44b      	bmi.n	8101dca <RCCEx_PLL2_Config+0xbe>
 8101d32:	6aa3      	ldr	r3, [r4, #40]	; 0x28
 8101d34:	6832      	ldr	r2, [r6, #0]
 8101d36:	f423 337c 	bic.w	r3, r3, #258048	; 0x3f000
 8101d3a:	ea43 3302 	orr.w	r3, r3, r2, lsl #12
 8101d3e:	62a3      	str	r3, [r4, #40]	; 0x28
 8101d40:	68b3      	ldr	r3, [r6, #8]
 8101d42:	68f2      	ldr	r2, [r6, #12]
 8101d44:	3b01      	subs	r3, #1
 8101d46:	3a01      	subs	r2, #1
 8101d48:	025b      	lsls	r3, r3, #9
 8101d4a:	0412      	lsls	r2, r2, #16
 8101d4c:	f402 02fe 	and.w	r2, r2, #8323072	; 0x7f0000
 8101d50:	b29b      	uxth	r3, r3
 8101d52:	4313      	orrs	r3, r2
 8101d54:	6872      	ldr	r2, [r6, #4]
 8101d56:	3a01      	subs	r2, #1
 8101d58:	f3c2 0208 	ubfx	r2, r2, #0, #9
 8101d5c:	4313      	orrs	r3, r2
 8101d5e:	6932      	ldr	r2, [r6, #16]
 8101d60:	3a01      	subs	r2, #1
 8101d62:	0612      	lsls	r2, r2, #24
 8101d64:	f002 42fe 	and.w	r2, r2, #2130706432	; 0x7f000000
 8101d68:	4313      	orrs	r3, r2
 8101d6a:	63a3      	str	r3, [r4, #56]	; 0x38
 8101d6c:	6ae3      	ldr	r3, [r4, #44]	; 0x2c
 8101d6e:	6972      	ldr	r2, [r6, #20]
 8101d70:	f023 03c0 	bic.w	r3, r3, #192	; 0xc0
 8101d74:	4313      	orrs	r3, r2
 8101d76:	62e3      	str	r3, [r4, #44]	; 0x2c
 8101d78:	6ae3      	ldr	r3, [r4, #44]	; 0x2c
 8101d7a:	69b2      	ldr	r2, [r6, #24]
 8101d7c:	f023 0320 	bic.w	r3, r3, #32
 8101d80:	4313      	orrs	r3, r2
 8101d82:	62e3      	str	r3, [r4, #44]	; 0x2c
 8101d84:	6ae3      	ldr	r3, [r4, #44]	; 0x2c
 8101d86:	f023 0310 	bic.w	r3, r3, #16
 8101d8a:	62e3      	str	r3, [r4, #44]	; 0x2c
 8101d8c:	6be3      	ldr	r3, [r4, #60]	; 0x3c
 8101d8e:	69f2      	ldr	r2, [r6, #28]
 8101d90:	f423 437f 	bic.w	r3, r3, #65280	; 0xff00
 8101d94:	f023 03f8 	bic.w	r3, r3, #248	; 0xf8
 8101d98:	ea43 03c2 	orr.w	r3, r3, r2, lsl #3
 8101d9c:	63e3      	str	r3, [r4, #60]	; 0x3c
 8101d9e:	6ae3      	ldr	r3, [r4, #44]	; 0x2c
 8101da0:	f043 0310 	orr.w	r3, r3, #16
 8101da4:	62e3      	str	r3, [r4, #44]	; 0x2c
 8101da6:	6ae3      	ldr	r3, [r4, #44]	; 0x2c
 8101da8:	b9b5      	cbnz	r5, 8101dd8 <RCCEx_PLL2_Config+0xcc>
 8101daa:	f443 2300 	orr.w	r3, r3, #524288	; 0x80000
 8101dae:	62e3      	str	r3, [r4, #44]	; 0x2c
 8101db0:	4c11      	ldr	r4, [pc, #68]	; (8101df8 <RCCEx_PLL2_Config+0xec>)
 8101db2:	6823      	ldr	r3, [r4, #0]
 8101db4:	f043 6380 	orr.w	r3, r3, #67108864	; 0x4000000
 8101db8:	6023      	str	r3, [r4, #0]
 8101dba:	f7fe fed1 	bl	8100b60 <HAL_GetTick>
 8101dbe:	4605      	mov	r5, r0
 8101dc0:	6823      	ldr	r3, [r4, #0]
 8101dc2:	011b      	lsls	r3, r3, #4
 8101dc4:	d50f      	bpl.n	8101de6 <RCCEx_PLL2_Config+0xda>
 8101dc6:	2000      	movs	r0, #0
 8101dc8:	e005      	b.n	8101dd6 <RCCEx_PLL2_Config+0xca>
 8101dca:	f7fe fec9 	bl	8100b60 <HAL_GetTick>
 8101dce:	1bc0      	subs	r0, r0, r7
 8101dd0:	2802      	cmp	r0, #2
 8101dd2:	d9ab      	bls.n	8101d2c <RCCEx_PLL2_Config+0x20>
 8101dd4:	2003      	movs	r0, #3
 8101dd6:	bdf8      	pop	{r3, r4, r5, r6, r7, pc}
 8101dd8:	2d01      	cmp	r5, #1
 8101dda:	bf0c      	ite	eq
 8101ddc:	f443 1380 	orreq.w	r3, r3, #1048576	; 0x100000
 8101de0:	f443 1300 	orrne.w	r3, r3, #2097152	; 0x200000
 8101de4:	e7e3      	b.n	8101dae <RCCEx_PLL2_Config+0xa2>
 8101de6:	f7fe febb 	bl	8100b60 <HAL_GetTick>
 8101dea:	1b40      	subs	r0, r0, r5
 8101dec:	2802      	cmp	r0, #2
 8101dee:	d9e7      	bls.n	8101dc0 <RCCEx_PLL2_Config+0xb4>
 8101df0:	e7f0      	b.n	8101dd4 <RCCEx_PLL2_Config+0xc8>
 8101df2:	2001      	movs	r0, #1
 8101df4:	e7ef      	b.n	8101dd6 <RCCEx_PLL2_Config+0xca>
 8101df6:	bf00      	nop
 8101df8:	58024400 	.word	0x58024400

08101dfc <RCCEx_PLL3_Config>:
 8101dfc:	b5f8      	push	{r3, r4, r5, r6, r7, lr}
 8101dfe:	4c3a      	ldr	r4, [pc, #232]	; (8101ee8 <RCCEx_PLL3_Config+0xec>)
 8101e00:	6aa3      	ldr	r3, [r4, #40]	; 0x28
 8101e02:	f003 0303 	and.w	r3, r3, #3
 8101e06:	2b03      	cmp	r3, #3
 8101e08:	4606      	mov	r6, r0
 8101e0a:	460d      	mov	r5, r1
 8101e0c:	d069      	beq.n	8101ee2 <RCCEx_PLL3_Config+0xe6>
 8101e0e:	6823      	ldr	r3, [r4, #0]
 8101e10:	f023 5380 	bic.w	r3, r3, #268435456	; 0x10000000
 8101e14:	6023      	str	r3, [r4, #0]
 8101e16:	f7fe fea3 	bl	8100b60 <HAL_GetTick>
 8101e1a:	4607      	mov	r7, r0
 8101e1c:	6823      	ldr	r3, [r4, #0]
 8101e1e:	009a      	lsls	r2, r3, #2
 8101e20:	d44b      	bmi.n	8101eba <RCCEx_PLL3_Config+0xbe>
 8101e22:	6aa3      	ldr	r3, [r4, #40]	; 0x28
 8101e24:	6832      	ldr	r2, [r6, #0]
 8101e26:	f023 737c 	bic.w	r3, r3, #66060288	; 0x3f00000
 8101e2a:	ea43 5302 	orr.w	r3, r3, r2, lsl #20
 8101e2e:	62a3      	str	r3, [r4, #40]	; 0x28
 8101e30:	68b3      	ldr	r3, [r6, #8]
 8101e32:	68f2      	ldr	r2, [r6, #12]
 8101e34:	3b01      	subs	r3, #1
 8101e36:	3a01      	subs	r2, #1
 8101e38:	025b      	lsls	r3, r3, #9
 8101e3a:	0412      	lsls	r2, r2, #16
 8101e3c:	f402 02fe 	and.w	r2, r2, #8323072	; 0x7f0000
 8101e40:	b29b      	uxth	r3, r3
 8101e42:	4313      	orrs	r3, r2
 8101e44:	6872      	ldr	r2, [r6, #4]
 8101e46:	3a01      	subs	r2, #1
 8101e48:	f3c2 0208 	ubfx	r2, r2, #0, #9
 8101e4c:	4313      	orrs	r3, r2
 8101e4e:	6932      	ldr	r2, [r6, #16]
 8101e50:	3a01      	subs	r2, #1
 8101e52:	0612      	lsls	r2, r2, #24
 8101e54:	f002 42fe 	and.w	r2, r2, #2130706432	; 0x7f000000
 8101e58:	4313      	orrs	r3, r2
 8101e5a:	6423      	str	r3, [r4, #64]	; 0x40
 8101e5c:	6ae3      	ldr	r3, [r4, #44]	; 0x2c
 8101e5e:	6972      	ldr	r2, [r6, #20]
 8101e60:	f423 6340 	bic.w	r3, r3, #3072	; 0xc00
 8101e64:	4313      	orrs	r3, r2
 8101e66:	62e3      	str	r3, [r4, #44]	; 0x2c
 8101e68:	6ae3      	ldr	r3, [r4, #44]	; 0x2c
 8101e6a:	69b2      	ldr	r2, [r6, #24]
 8101e6c:	f423 7300 	bic.w	r3, r3, #512	; 0x200
 8101e70:	4313      	orrs	r3, r2
 8101e72:	62e3      	str	r3, [r4, #44]	; 0x2c
 8101e74:	6ae3      	ldr	r3, [r4, #44]	; 0x2c
 8101e76:	f423 7380 	bic.w	r3, r3, #256	; 0x100
 8101e7a:	62e3      	str	r3, [r4, #44]	; 0x2c
 8101e7c:	6c63      	ldr	r3, [r4, #68]	; 0x44
 8101e7e:	69f2      	ldr	r2, [r6, #28]
 8101e80:	f423 437f 	bic.w	r3, r3, #65280	; 0xff00
 8101e84:	f023 03f8 	bic.w	r3, r3, #248	; 0xf8
 8101e88:	ea43 03c2 	orr.w	r3, r3, r2, lsl #3
 8101e8c:	6463      	str	r3, [r4, #68]	; 0x44
 8101e8e:	6ae3      	ldr	r3, [r4, #44]	; 0x2c
 8101e90:	f443 7380 	orr.w	r3, r3, #256	; 0x100
 8101e94:	62e3      	str	r3, [r4, #44]	; 0x2c
 8101e96:	6ae3      	ldr	r3, [r4, #44]	; 0x2c
 8101e98:	b9b5      	cbnz	r5, 8101ec8 <RCCEx_PLL3_Config+0xcc>
 8101e9a:	f443 0380 	orr.w	r3, r3, #4194304	; 0x400000
 8101e9e:	62e3      	str	r3, [r4, #44]	; 0x2c
 8101ea0:	4c11      	ldr	r4, [pc, #68]	; (8101ee8 <RCCEx_PLL3_Config+0xec>)
 8101ea2:	6823      	ldr	r3, [r4, #0]
 8101ea4:	f043 5380 	orr.w	r3, r3, #268435456	; 0x10000000
 8101ea8:	6023      	str	r3, [r4, #0]
 8101eaa:	f7fe fe59 	bl	8100b60 <HAL_GetTick>
 8101eae:	4605      	mov	r5, r0
 8101eb0:	6823      	ldr	r3, [r4, #0]
 8101eb2:	009b      	lsls	r3, r3, #2
 8101eb4:	d50f      	bpl.n	8101ed6 <RCCEx_PLL3_Config+0xda>
 8101eb6:	2000      	movs	r0, #0
 8101eb8:	e005      	b.n	8101ec6 <RCCEx_PLL3_Config+0xca>
 8101eba:	f7fe fe51 	bl	8100b60 <HAL_GetTick>
 8101ebe:	1bc0      	subs	r0, r0, r7
 8101ec0:	2802      	cmp	r0, #2
 8101ec2:	d9ab      	bls.n	8101e1c <RCCEx_PLL3_Config+0x20>
 8101ec4:	2003      	movs	r0, #3
 8101ec6:	bdf8      	pop	{r3, r4, r5, r6, r7, pc}
 8101ec8:	2d01      	cmp	r5, #1
 8101eca:	bf0c      	ite	eq
 8101ecc:	f443 0300 	orreq.w	r3, r3, #8388608	; 0x800000
 8101ed0:	f043 7380 	orrne.w	r3, r3, #16777216	; 0x1000000
 8101ed4:	e7e3      	b.n	8101e9e <RCCEx_PLL3_Config+0xa2>
 8101ed6:	f7fe fe43 	bl	8100b60 <HAL_GetTick>
 8101eda:	1b40      	subs	r0, r0, r5
 8101edc:	2802      	cmp	r0, #2
 8101ede:	d9e7      	bls.n	8101eb0 <RCCEx_PLL3_Config+0xb4>
 8101ee0:	e7f0      	b.n	8101ec4 <RCCEx_PLL3_Config+0xc8>
 8101ee2:	2001      	movs	r0, #1
 8101ee4:	e7ef      	b.n	8101ec6 <RCCEx_PLL3_Config+0xca>
 8101ee6:	bf00      	nop
 8101ee8:	58024400 	.word	0x58024400

08101eec <HAL_RCCEx_PeriphCLKConfig>:
 8101eec:	e92d 43f8 	stmdb	sp!, {r3, r4, r5, r6, r7, r8, r9, lr}
 8101ef0:	6806      	ldr	r6, [r0, #0]
 8101ef2:	f016 6600 	ands.w	r6, r6, #134217728	; 0x8000000
 8101ef6:	4605      	mov	r5, r0
 8101ef8:	d009      	beq.n	8101f0e <HAL_RCCEx_PeriphCLKConfig+0x22>
 8101efa:	6e43      	ldr	r3, [r0, #100]	; 0x64
 8101efc:	f5b3 1f00 	cmp.w	r3, #2097152	; 0x200000
 8101f00:	d02e      	beq.n	8101f60 <HAL_RCCEx_PeriphCLKConfig+0x74>
 8101f02:	d813      	bhi.n	8101f2c <HAL_RCCEx_PeriphCLKConfig+0x40>
 8101f04:	b1f3      	cbz	r3, 8101f44 <HAL_RCCEx_PeriphCLKConfig+0x58>
 8101f06:	f5b3 1f80 	cmp.w	r3, #1048576	; 0x100000
 8101f0a:	d021      	beq.n	8101f50 <HAL_RCCEx_PeriphCLKConfig+0x64>
 8101f0c:	2601      	movs	r6, #1
 8101f0e:	682b      	ldr	r3, [r5, #0]
 8101f10:	05dc      	lsls	r4, r3, #23
 8101f12:	f140 80ea 	bpl.w	81020ea <HAL_RCCEx_PeriphCLKConfig+0x1fe>
 8101f16:	6d6b      	ldr	r3, [r5, #84]	; 0x54
 8101f18:	2b04      	cmp	r3, #4
 8101f1a:	f200 80e5 	bhi.w	81020e8 <HAL_RCCEx_PeriphCLKConfig+0x1fc>
 8101f1e:	e8df f013 	tbh	[pc, r3, lsl #1]
 8101f22:	0024      	.short	0x0024
 8101f24:	00dd002b 	.word	0x00dd002b
 8101f28:	00290029 	.word	0x00290029
 8101f2c:	f5b3 1f40 	cmp.w	r3, #3145728	; 0x300000
 8101f30:	d1ec      	bne.n	8101f0c <HAL_RCCEx_PeriphCLKConfig+0x20>
 8101f32:	4ab3      	ldr	r2, [pc, #716]	; (8102200 <HAL_RCCEx_PeriphCLKConfig+0x314>)
 8101f34:	6e69      	ldr	r1, [r5, #100]	; 0x64
 8101f36:	6d13      	ldr	r3, [r2, #80]	; 0x50
 8101f38:	f423 1340 	bic.w	r3, r3, #3145728	; 0x300000
 8101f3c:	430b      	orrs	r3, r1
 8101f3e:	6513      	str	r3, [r2, #80]	; 0x50
 8101f40:	2600      	movs	r6, #0
 8101f42:	e7e4      	b.n	8101f0e <HAL_RCCEx_PeriphCLKConfig+0x22>
 8101f44:	4aae      	ldr	r2, [pc, #696]	; (8102200 <HAL_RCCEx_PeriphCLKConfig+0x314>)
 8101f46:	6ad3      	ldr	r3, [r2, #44]	; 0x2c
 8101f48:	f443 3300 	orr.w	r3, r3, #131072	; 0x20000
 8101f4c:	62d3      	str	r3, [r2, #44]	; 0x2c
 8101f4e:	e7f0      	b.n	8101f32 <HAL_RCCEx_PeriphCLKConfig+0x46>
 8101f50:	2102      	movs	r1, #2
 8101f52:	3004      	adds	r0, #4
 8101f54:	f7ff feda 	bl	8101d0c <RCCEx_PLL2_Config>
 8101f58:	4606      	mov	r6, r0
 8101f5a:	2800      	cmp	r0, #0
 8101f5c:	d1d7      	bne.n	8101f0e <HAL_RCCEx_PeriphCLKConfig+0x22>
 8101f5e:	e7e8      	b.n	8101f32 <HAL_RCCEx_PeriphCLKConfig+0x46>
 8101f60:	2102      	movs	r1, #2
 8101f62:	3024      	adds	r0, #36	; 0x24
 8101f64:	f7ff ff4a 	bl	8101dfc <RCCEx_PLL3_Config>
 8101f68:	e7f6      	b.n	8101f58 <HAL_RCCEx_PeriphCLKConfig+0x6c>
 8101f6a:	4aa5      	ldr	r2, [pc, #660]	; (8102200 <HAL_RCCEx_PeriphCLKConfig+0x314>)
 8101f6c:	6ad3      	ldr	r3, [r2, #44]	; 0x2c
 8101f6e:	f443 3300 	orr.w	r3, r3, #131072	; 0x20000
 8101f72:	62d3      	str	r3, [r2, #44]	; 0x2c
 8101f74:	4634      	mov	r4, r6
 8101f76:	e004      	b.n	8101f82 <HAL_RCCEx_PeriphCLKConfig+0x96>
 8101f78:	2100      	movs	r1, #0
 8101f7a:	1d28      	adds	r0, r5, #4
 8101f7c:	f7ff fec6 	bl	8101d0c <RCCEx_PLL2_Config>
 8101f80:	4604      	mov	r4, r0
 8101f82:	2c00      	cmp	r4, #0
 8101f84:	f040 80b3 	bne.w	81020ee <HAL_RCCEx_PeriphCLKConfig+0x202>
 8101f88:	4a9d      	ldr	r2, [pc, #628]	; (8102200 <HAL_RCCEx_PeriphCLKConfig+0x314>)
 8101f8a:	6d69      	ldr	r1, [r5, #84]	; 0x54
 8101f8c:	6d13      	ldr	r3, [r2, #80]	; 0x50
 8101f8e:	f023 0307 	bic.w	r3, r3, #7
 8101f92:	430b      	orrs	r3, r1
 8101f94:	6513      	str	r3, [r2, #80]	; 0x50
 8101f96:	682b      	ldr	r3, [r5, #0]
 8101f98:	0598      	lsls	r0, r3, #22
 8101f9a:	d50d      	bpl.n	8101fb8 <HAL_RCCEx_PeriphCLKConfig+0xcc>
 8101f9c:	6dab      	ldr	r3, [r5, #88]	; 0x58
 8101f9e:	2b80      	cmp	r3, #128	; 0x80
 8101fa0:	f000 80c2 	beq.w	8102128 <HAL_RCCEx_PeriphCLKConfig+0x23c>
 8101fa4:	f200 80a5 	bhi.w	81020f2 <HAL_RCCEx_PeriphCLKConfig+0x206>
 8101fa8:	2b00      	cmp	r3, #0
 8101faa:	f000 80b1 	beq.w	8102110 <HAL_RCCEx_PeriphCLKConfig+0x224>
 8101fae:	2b40      	cmp	r3, #64	; 0x40
 8101fb0:	f000 80b4 	beq.w	810211c <HAL_RCCEx_PeriphCLKConfig+0x230>
 8101fb4:	2601      	movs	r6, #1
 8101fb6:	4634      	mov	r4, r6
 8101fb8:	682b      	ldr	r3, [r5, #0]
 8101fba:	0559      	lsls	r1, r3, #21
 8101fbc:	d510      	bpl.n	8101fe0 <HAL_RCCEx_PeriphCLKConfig+0xf4>
 8101fbe:	f8d5 30a4 	ldr.w	r3, [r5, #164]	; 0xa4
 8101fc2:	f5b3 0f80 	cmp.w	r3, #4194304	; 0x400000
 8101fc6:	f000 80d4 	beq.w	8102172 <HAL_RCCEx_PeriphCLKConfig+0x286>
 8101fca:	f200 80b5 	bhi.w	8102138 <HAL_RCCEx_PeriphCLKConfig+0x24c>
 8101fce:	2b00      	cmp	r3, #0
 8101fd0:	f000 80c3 	beq.w	810215a <HAL_RCCEx_PeriphCLKConfig+0x26e>
 8101fd4:	f5b3 1f00 	cmp.w	r3, #2097152	; 0x200000
 8101fd8:	f000 80c5 	beq.w	8102166 <HAL_RCCEx_PeriphCLKConfig+0x27a>
 8101fdc:	2601      	movs	r6, #1
 8101fde:	4634      	mov	r4, r6
 8101fe0:	682b      	ldr	r3, [r5, #0]
 8101fe2:	051a      	lsls	r2, r3, #20
 8101fe4:	d510      	bpl.n	8102008 <HAL_RCCEx_PeriphCLKConfig+0x11c>
 8101fe6:	f8d5 30a8 	ldr.w	r3, [r5, #168]	; 0xa8
 8101fea:	f1b3 7f00 	cmp.w	r3, #33554432	; 0x2000000
 8101fee:	f000 80e5 	beq.w	81021bc <HAL_RCCEx_PeriphCLKConfig+0x2d0>
 8101ff2:	f200 80c6 	bhi.w	8102182 <HAL_RCCEx_PeriphCLKConfig+0x296>
 8101ff6:	2b00      	cmp	r3, #0
 8101ff8:	f000 80d4 	beq.w	81021a4 <HAL_RCCEx_PeriphCLKConfig+0x2b8>
 8101ffc:	f1b3 7f80 	cmp.w	r3, #16777216	; 0x1000000
 8102000:	f000 80d6 	beq.w	81021b0 <HAL_RCCEx_PeriphCLKConfig+0x2c4>
 8102004:	2601      	movs	r6, #1
 8102006:	4634      	mov	r4, r6
 8102008:	682b      	ldr	r3, [r5, #0]
 810200a:	019b      	lsls	r3, r3, #6
 810200c:	d50d      	bpl.n	810202a <HAL_RCCEx_PeriphCLKConfig+0x13e>
 810200e:	6cab      	ldr	r3, [r5, #72]	; 0x48
 8102010:	2b20      	cmp	r3, #32
 8102012:	f000 80ed 	beq.w	81021f0 <HAL_RCCEx_PeriphCLKConfig+0x304>
 8102016:	f200 80d9 	bhi.w	81021cc <HAL_RCCEx_PeriphCLKConfig+0x2e0>
 810201a:	2b00      	cmp	r3, #0
 810201c:	f000 80d9 	beq.w	81021d2 <HAL_RCCEx_PeriphCLKConfig+0x2e6>
 8102020:	2b10      	cmp	r3, #16
 8102022:	f000 80df 	beq.w	81021e4 <HAL_RCCEx_PeriphCLKConfig+0x2f8>
 8102026:	2601      	movs	r6, #1
 8102028:	4634      	mov	r4, r6
 810202a:	682b      	ldr	r3, [r5, #0]
 810202c:	04df      	lsls	r7, r3, #19
 810202e:	d50f      	bpl.n	8102050 <HAL_RCCEx_PeriphCLKConfig+0x164>
 8102030:	6deb      	ldr	r3, [r5, #92]	; 0x5c
 8102032:	f5b3 5f00 	cmp.w	r3, #8192	; 0x2000
 8102036:	f000 8101 	beq.w	810223c <HAL_RCCEx_PeriphCLKConfig+0x350>
 810203a:	f200 80e3 	bhi.w	8102204 <HAL_RCCEx_PeriphCLKConfig+0x318>
 810203e:	2b00      	cmp	r3, #0
 8102040:	f000 80f0 	beq.w	8102224 <HAL_RCCEx_PeriphCLKConfig+0x338>
 8102044:	f5b3 5f80 	cmp.w	r3, #4096	; 0x1000
 8102048:	f000 80f2 	beq.w	8102230 <HAL_RCCEx_PeriphCLKConfig+0x344>
 810204c:	2601      	movs	r6, #1
 810204e:	4634      	mov	r4, r6
 8102050:	682b      	ldr	r3, [r5, #0]
 8102052:	0498      	lsls	r0, r3, #18
 8102054:	d50f      	bpl.n	8102076 <HAL_RCCEx_PeriphCLKConfig+0x18a>
 8102056:	6e2b      	ldr	r3, [r5, #96]	; 0x60
 8102058:	f5b3 3f00 	cmp.w	r3, #131072	; 0x20000
 810205c:	f000 810e 	beq.w	810227c <HAL_RCCEx_PeriphCLKConfig+0x390>
 8102060:	f200 80f4 	bhi.w	810224c <HAL_RCCEx_PeriphCLKConfig+0x360>
 8102064:	2b00      	cmp	r3, #0
 8102066:	f000 80fa 	beq.w	810225e <HAL_RCCEx_PeriphCLKConfig+0x372>
 810206a:	f5b3 3f80 	cmp.w	r3, #65536	; 0x10000
 810206e:	f000 80ff 	beq.w	8102270 <HAL_RCCEx_PeriphCLKConfig+0x384>
 8102072:	2601      	movs	r6, #1
 8102074:	4634      	mov	r4, r6
 8102076:	682b      	ldr	r3, [r5, #0]
 8102078:	0459      	lsls	r1, r3, #17
 810207a:	d510      	bpl.n	810209e <HAL_RCCEx_PeriphCLKConfig+0x1b2>
 810207c:	f8d5 30ac 	ldr.w	r3, [r5, #172]	; 0xac
 8102080:	f1b3 5f00 	cmp.w	r3, #536870912	; 0x20000000
 8102084:	f000 811b 	beq.w	81022be <HAL_RCCEx_PeriphCLKConfig+0x3d2>
 8102088:	f200 8100 	bhi.w	810228c <HAL_RCCEx_PeriphCLKConfig+0x3a0>
 810208c:	2b00      	cmp	r3, #0
 810208e:	f000 8106 	beq.w	810229e <HAL_RCCEx_PeriphCLKConfig+0x3b2>
 8102092:	f1b3 5f80 	cmp.w	r3, #268435456	; 0x10000000
 8102096:	f000 810c 	beq.w	81022b2 <HAL_RCCEx_PeriphCLKConfig+0x3c6>
 810209a:	2601      	movs	r6, #1
 810209c:	4634      	mov	r4, r6
 810209e:	682b      	ldr	r3, [r5, #0]
 81020a0:	041a      	lsls	r2, r3, #16
 81020a2:	d50d      	bpl.n	81020c0 <HAL_RCCEx_PeriphCLKConfig+0x1d4>
 81020a4:	6eeb      	ldr	r3, [r5, #108]	; 0x6c
 81020a6:	f1b3 5f80 	cmp.w	r3, #268435456	; 0x10000000
 81020aa:	f000 8110 	beq.w	81022ce <HAL_RCCEx_PeriphCLKConfig+0x3e2>
 81020ae:	f1b3 5f00 	cmp.w	r3, #536870912	; 0x20000000
 81020b2:	f000 811a 	beq.w	81022ea <HAL_RCCEx_PeriphCLKConfig+0x3fe>
 81020b6:	2b00      	cmp	r3, #0
 81020b8:	f000 810e 	beq.w	81022d8 <HAL_RCCEx_PeriphCLKConfig+0x3ec>
 81020bc:	2601      	movs	r6, #1
 81020be:	4634      	mov	r4, r6
 81020c0:	682b      	ldr	r3, [r5, #0]
 81020c2:	01db      	lsls	r3, r3, #7
 81020c4:	f140 8127 	bpl.w	8102316 <HAL_RCCEx_PeriphCLKConfig+0x42a>
 81020c8:	6c6b      	ldr	r3, [r5, #68]	; 0x44
 81020ca:	2b03      	cmp	r3, #3
 81020cc:	f200 8167 	bhi.w	810239e <HAL_RCCEx_PeriphCLKConfig+0x4b2>
 81020d0:	e8df f013 	tbh	[pc, r3, lsl #1]
 81020d4:	01130118 	.word	0x01130118
 81020d8:	0118015f 	.word	0x0118015f
 81020dc:	2100      	movs	r1, #0
 81020de:	f105 0024 	add.w	r0, r5, #36	; 0x24
 81020e2:	f7ff fe8b 	bl	8101dfc <RCCEx_PLL3_Config>
 81020e6:	e74b      	b.n	8101f80 <HAL_RCCEx_PeriphCLKConfig+0x94>
 81020e8:	2601      	movs	r6, #1
 81020ea:	4634      	mov	r4, r6
 81020ec:	e753      	b.n	8101f96 <HAL_RCCEx_PeriphCLKConfig+0xaa>
 81020ee:	4626      	mov	r6, r4
 81020f0:	e751      	b.n	8101f96 <HAL_RCCEx_PeriphCLKConfig+0xaa>
 81020f2:	2bc0      	cmp	r3, #192	; 0xc0
 81020f4:	d003      	beq.n	81020fe <HAL_RCCEx_PeriphCLKConfig+0x212>
 81020f6:	f5b3 7f80 	cmp.w	r3, #256	; 0x100
 81020fa:	f47f af5b 	bne.w	8101fb4 <HAL_RCCEx_PeriphCLKConfig+0xc8>
 81020fe:	b9cc      	cbnz	r4, 8102134 <HAL_RCCEx_PeriphCLKConfig+0x248>
 8102100:	4a3f      	ldr	r2, [pc, #252]	; (8102200 <HAL_RCCEx_PeriphCLKConfig+0x314>)
 8102102:	6da9      	ldr	r1, [r5, #88]	; 0x58
 8102104:	6d13      	ldr	r3, [r2, #80]	; 0x50
 8102106:	f423 73e0 	bic.w	r3, r3, #448	; 0x1c0
 810210a:	430b      	orrs	r3, r1
 810210c:	6513      	str	r3, [r2, #80]	; 0x50
 810210e:	e753      	b.n	8101fb8 <HAL_RCCEx_PeriphCLKConfig+0xcc>
 8102110:	4a3b      	ldr	r2, [pc, #236]	; (8102200 <HAL_RCCEx_PeriphCLKConfig+0x314>)
 8102112:	6ad3      	ldr	r3, [r2, #44]	; 0x2c
 8102114:	f443 3300 	orr.w	r3, r3, #131072	; 0x20000
 8102118:	62d3      	str	r3, [r2, #44]	; 0x2c
 810211a:	e7f0      	b.n	81020fe <HAL_RCCEx_PeriphCLKConfig+0x212>
 810211c:	2100      	movs	r1, #0
 810211e:	1d28      	adds	r0, r5, #4
 8102120:	f7ff fdf4 	bl	8101d0c <RCCEx_PLL2_Config>
 8102124:	4604      	mov	r4, r0
 8102126:	e7ea      	b.n	81020fe <HAL_RCCEx_PeriphCLKConfig+0x212>
 8102128:	2100      	movs	r1, #0
 810212a:	f105 0024 	add.w	r0, r5, #36	; 0x24
 810212e:	f7ff fe65 	bl	8101dfc <RCCEx_PLL3_Config>
 8102132:	e7f7      	b.n	8102124 <HAL_RCCEx_PeriphCLKConfig+0x238>
 8102134:	4626      	mov	r6, r4
 8102136:	e73f      	b.n	8101fb8 <HAL_RCCEx_PeriphCLKConfig+0xcc>
 8102138:	f5b3 0fc0 	cmp.w	r3, #6291456	; 0x600000
 810213c:	d003      	beq.n	8102146 <HAL_RCCEx_PeriphCLKConfig+0x25a>
 810213e:	f5b3 0f00 	cmp.w	r3, #8388608	; 0x800000
 8102142:	f47f af4b 	bne.w	8101fdc <HAL_RCCEx_PeriphCLKConfig+0xf0>
 8102146:	b9d4      	cbnz	r4, 810217e <HAL_RCCEx_PeriphCLKConfig+0x292>
 8102148:	4a2d      	ldr	r2, [pc, #180]	; (8102200 <HAL_RCCEx_PeriphCLKConfig+0x314>)
 810214a:	f8d5 10a4 	ldr.w	r1, [r5, #164]	; 0xa4
 810214e:	6d93      	ldr	r3, [r2, #88]	; 0x58
 8102150:	f423 0360 	bic.w	r3, r3, #14680064	; 0xe00000
 8102154:	430b      	orrs	r3, r1
 8102156:	6593      	str	r3, [r2, #88]	; 0x58
 8102158:	e742      	b.n	8101fe0 <HAL_RCCEx_PeriphCLKConfig+0xf4>
 810215a:	4a29      	ldr	r2, [pc, #164]	; (8102200 <HAL_RCCEx_PeriphCLKConfig+0x314>)
 810215c:	6ad3      	ldr	r3, [r2, #44]	; 0x2c
 810215e:	f443 3300 	orr.w	r3, r3, #131072	; 0x20000
 8102162:	62d3      	str	r3, [r2, #44]	; 0x2c
 8102164:	e7ef      	b.n	8102146 <HAL_RCCEx_PeriphCLKConfig+0x25a>
 8102166:	2100      	movs	r1, #0
 8102168:	1d28      	adds	r0, r5, #4
 810216a:	f7ff fdcf 	bl	8101d0c <RCCEx_PLL2_Config>
 810216e:	4604      	mov	r4, r0
 8102170:	e7e9      	b.n	8102146 <HAL_RCCEx_PeriphCLKConfig+0x25a>
 8102172:	2100      	movs	r1, #0
 8102174:	f105 0024 	add.w	r0, r5, #36	; 0x24
 8102178:	f7ff fe40 	bl	8101dfc <RCCEx_PLL3_Config>
 810217c:	e7f7      	b.n	810216e <HAL_RCCEx_PeriphCLKConfig+0x282>
 810217e:	4626      	mov	r6, r4
 8102180:	e72e      	b.n	8101fe0 <HAL_RCCEx_PeriphCLKConfig+0xf4>
 8102182:	f1b3 7f40 	cmp.w	r3, #50331648	; 0x3000000
 8102186:	d003      	beq.n	8102190 <HAL_RCCEx_PeriphCLKConfig+0x2a4>
 8102188:	f1b3 6f80 	cmp.w	r3, #67108864	; 0x4000000
 810218c:	f47f af3a 	bne.w	8102004 <HAL_RCCEx_PeriphCLKConfig+0x118>
 8102190:	b9d4      	cbnz	r4, 81021c8 <HAL_RCCEx_PeriphCLKConfig+0x2dc>
 8102192:	4a1b      	ldr	r2, [pc, #108]	; (8102200 <HAL_RCCEx_PeriphCLKConfig+0x314>)
 8102194:	f8d5 10a8 	ldr.w	r1, [r5, #168]	; 0xa8
 8102198:	6d93      	ldr	r3, [r2, #88]	; 0x58
 810219a:	f023 63e0 	bic.w	r3, r3, #117440512	; 0x7000000
 810219e:	430b      	orrs	r3, r1
 81021a0:	6593      	str	r3, [r2, #88]	; 0x58
 81021a2:	e731      	b.n	8102008 <HAL_RCCEx_PeriphCLKConfig+0x11c>
 81021a4:	4a16      	ldr	r2, [pc, #88]	; (8102200 <HAL_RCCEx_PeriphCLKConfig+0x314>)
 81021a6:	6ad3      	ldr	r3, [r2, #44]	; 0x2c
 81021a8:	f443 3300 	orr.w	r3, r3, #131072	; 0x20000
 81021ac:	62d3      	str	r3, [r2, #44]	; 0x2c
 81021ae:	e7ef      	b.n	8102190 <HAL_RCCEx_PeriphCLKConfig+0x2a4>
 81021b0:	2100      	movs	r1, #0
 81021b2:	1d28      	adds	r0, r5, #4
 81021b4:	f7ff fdaa 	bl	8101d0c <RCCEx_PLL2_Config>
 81021b8:	4604      	mov	r4, r0
 81021ba:	e7e9      	b.n	8102190 <HAL_RCCEx_PeriphCLKConfig+0x2a4>
 81021bc:	2100      	movs	r1, #0
 81021be:	f105 0024 	add.w	r0, r5, #36	; 0x24
 81021c2:	f7ff fe1b 	bl	8101dfc <RCCEx_PLL3_Config>
 81021c6:	e7f7      	b.n	81021b8 <HAL_RCCEx_PeriphCLKConfig+0x2cc>
 81021c8:	4626      	mov	r6, r4
 81021ca:	e71d      	b.n	8102008 <HAL_RCCEx_PeriphCLKConfig+0x11c>
 81021cc:	2b30      	cmp	r3, #48	; 0x30
 81021ce:	f47f af2a 	bne.w	8102026 <HAL_RCCEx_PeriphCLKConfig+0x13a>
 81021d2:	b99c      	cbnz	r4, 81021fc <HAL_RCCEx_PeriphCLKConfig+0x310>
 81021d4:	4a0a      	ldr	r2, [pc, #40]	; (8102200 <HAL_RCCEx_PeriphCLKConfig+0x314>)
 81021d6:	6ca9      	ldr	r1, [r5, #72]	; 0x48
 81021d8:	6cd3      	ldr	r3, [r2, #76]	; 0x4c
 81021da:	f023 0330 	bic.w	r3, r3, #48	; 0x30
 81021de:	430b      	orrs	r3, r1
 81021e0:	64d3      	str	r3, [r2, #76]	; 0x4c
 81021e2:	e722      	b.n	810202a <HAL_RCCEx_PeriphCLKConfig+0x13e>
 81021e4:	4a06      	ldr	r2, [pc, #24]	; (8102200 <HAL_RCCEx_PeriphCLKConfig+0x314>)
 81021e6:	6ad3      	ldr	r3, [r2, #44]	; 0x2c
 81021e8:	f443 3300 	orr.w	r3, r3, #131072	; 0x20000
 81021ec:	62d3      	str	r3, [r2, #44]	; 0x2c
 81021ee:	e7f0      	b.n	81021d2 <HAL_RCCEx_PeriphCLKConfig+0x2e6>
 81021f0:	2102      	movs	r1, #2
 81021f2:	1d28      	adds	r0, r5, #4
 81021f4:	f7ff fd8a 	bl	8101d0c <RCCEx_PLL2_Config>
 81021f8:	4604      	mov	r4, r0
 81021fa:	e7ea      	b.n	81021d2 <HAL_RCCEx_PeriphCLKConfig+0x2e6>
 81021fc:	4626      	mov	r6, r4
 81021fe:	e714      	b.n	810202a <HAL_RCCEx_PeriphCLKConfig+0x13e>
 8102200:	58024400 	.word	0x58024400
 8102204:	f5b3 5f40 	cmp.w	r3, #12288	; 0x3000
 8102208:	d003      	beq.n	8102212 <HAL_RCCEx_PeriphCLKConfig+0x326>
 810220a:	f5b3 4f80 	cmp.w	r3, #16384	; 0x4000
 810220e:	f47f af1d 	bne.w	810204c <HAL_RCCEx_PeriphCLKConfig+0x160>
 8102212:	b9cc      	cbnz	r4, 8102248 <HAL_RCCEx_PeriphCLKConfig+0x35c>
 8102214:	4aa2      	ldr	r2, [pc, #648]	; (81024a0 <HAL_RCCEx_PeriphCLKConfig+0x5b4>)
 8102216:	6de9      	ldr	r1, [r5, #92]	; 0x5c
 8102218:	6d13      	ldr	r3, [r2, #80]	; 0x50
 810221a:	f423 43e0 	bic.w	r3, r3, #28672	; 0x7000
 810221e:	430b      	orrs	r3, r1
 8102220:	6513      	str	r3, [r2, #80]	; 0x50
 8102222:	e715      	b.n	8102050 <HAL_RCCEx_PeriphCLKConfig+0x164>
 8102224:	4a9e      	ldr	r2, [pc, #632]	; (81024a0 <HAL_RCCEx_PeriphCLKConfig+0x5b4>)
 8102226:	6ad3      	ldr	r3, [r2, #44]	; 0x2c
 8102228:	f443 3300 	orr.w	r3, r3, #131072	; 0x20000
 810222c:	62d3      	str	r3, [r2, #44]	; 0x2c
 810222e:	e7f0      	b.n	8102212 <HAL_RCCEx_PeriphCLKConfig+0x326>
 8102230:	2100      	movs	r1, #0
 8102232:	1d28      	adds	r0, r5, #4
 8102234:	f7ff fd6a 	bl	8101d0c <RCCEx_PLL2_Config>
 8102238:	4604      	mov	r4, r0
 810223a:	e7ea      	b.n	8102212 <HAL_RCCEx_PeriphCLKConfig+0x326>
 810223c:	2100      	movs	r1, #0
 810223e:	f105 0024 	add.w	r0, r5, #36	; 0x24
 8102242:	f7ff fddb 	bl	8101dfc <RCCEx_PLL3_Config>
 8102246:	e7f7      	b.n	8102238 <HAL_RCCEx_PeriphCLKConfig+0x34c>
 8102248:	4626      	mov	r6, r4
 810224a:	e701      	b.n	8102050 <HAL_RCCEx_PeriphCLKConfig+0x164>
 810224c:	f423 3280 	bic.w	r2, r3, #65536	; 0x10000
 8102250:	f5b2 2f80 	cmp.w	r2, #262144	; 0x40000
 8102254:	d003      	beq.n	810225e <HAL_RCCEx_PeriphCLKConfig+0x372>
 8102256:	f5b3 3f40 	cmp.w	r3, #196608	; 0x30000
 810225a:	f47f af0a 	bne.w	8102072 <HAL_RCCEx_PeriphCLKConfig+0x186>
 810225e:	b99c      	cbnz	r4, 8102288 <HAL_RCCEx_PeriphCLKConfig+0x39c>
 8102260:	4a8f      	ldr	r2, [pc, #572]	; (81024a0 <HAL_RCCEx_PeriphCLKConfig+0x5b4>)
 8102262:	6e29      	ldr	r1, [r5, #96]	; 0x60
 8102264:	6d13      	ldr	r3, [r2, #80]	; 0x50
 8102266:	f423 23e0 	bic.w	r3, r3, #458752	; 0x70000
 810226a:	430b      	orrs	r3, r1
 810226c:	6513      	str	r3, [r2, #80]	; 0x50
 810226e:	e702      	b.n	8102076 <HAL_RCCEx_PeriphCLKConfig+0x18a>
 8102270:	2101      	movs	r1, #1
 8102272:	1d28      	adds	r0, r5, #4
 8102274:	f7ff fd4a 	bl	8101d0c <RCCEx_PLL2_Config>
 8102278:	4604      	mov	r4, r0
 810227a:	e7f0      	b.n	810225e <HAL_RCCEx_PeriphCLKConfig+0x372>
 810227c:	2101      	movs	r1, #1
 810227e:	f105 0024 	add.w	r0, r5, #36	; 0x24
 8102282:	f7ff fdbb 	bl	8101dfc <RCCEx_PLL3_Config>
 8102286:	e7f7      	b.n	8102278 <HAL_RCCEx_PeriphCLKConfig+0x38c>
 8102288:	4626      	mov	r6, r4
 810228a:	e6f4      	b.n	8102076 <HAL_RCCEx_PeriphCLKConfig+0x18a>
 810228c:	f023 5280 	bic.w	r2, r3, #268435456	; 0x10000000
 8102290:	f1b2 4f80 	cmp.w	r2, #1073741824	; 0x40000000
 8102294:	d003      	beq.n	810229e <HAL_RCCEx_PeriphCLKConfig+0x3b2>
 8102296:	f1b3 5f40 	cmp.w	r3, #805306368	; 0x30000000
 810229a:	f47f aefe 	bne.w	810209a <HAL_RCCEx_PeriphCLKConfig+0x1ae>
 810229e:	b9a4      	cbnz	r4, 81022ca <HAL_RCCEx_PeriphCLKConfig+0x3de>
 81022a0:	4a7f      	ldr	r2, [pc, #508]	; (81024a0 <HAL_RCCEx_PeriphCLKConfig+0x5b4>)
 81022a2:	f8d5 10ac 	ldr.w	r1, [r5, #172]	; 0xac
 81022a6:	6d93      	ldr	r3, [r2, #88]	; 0x58
 81022a8:	f023 43e0 	bic.w	r3, r3, #1879048192	; 0x70000000
 81022ac:	430b      	orrs	r3, r1
 81022ae:	6593      	str	r3, [r2, #88]	; 0x58
 81022b0:	e6f5      	b.n	810209e <HAL_RCCEx_PeriphCLKConfig+0x1b2>
 81022b2:	2101      	movs	r1, #1
 81022b4:	1d28      	adds	r0, r5, #4
 81022b6:	f7ff fd29 	bl	8101d0c <RCCEx_PLL2_Config>
 81022ba:	4604      	mov	r4, r0
 81022bc:	e7ef      	b.n	810229e <HAL_RCCEx_PeriphCLKConfig+0x3b2>
 81022be:	2101      	movs	r1, #1
 81022c0:	f105 0024 	add.w	r0, r5, #36	; 0x24
 81022c4:	f7ff fd9a 	bl	8101dfc <RCCEx_PLL3_Config>
 81022c8:	e7f7      	b.n	81022ba <HAL_RCCEx_PeriphCLKConfig+0x3ce>
 81022ca:	4626      	mov	r6, r4
 81022cc:	e6e7      	b.n	810209e <HAL_RCCEx_PeriphCLKConfig+0x1b2>
 81022ce:	4a74      	ldr	r2, [pc, #464]	; (81024a0 <HAL_RCCEx_PeriphCLKConfig+0x5b4>)
 81022d0:	6ad3      	ldr	r3, [r2, #44]	; 0x2c
 81022d2:	f443 3300 	orr.w	r3, r3, #131072	; 0x20000
 81022d6:	62d3      	str	r3, [r2, #44]	; 0x2c
 81022d8:	b96c      	cbnz	r4, 81022f6 <HAL_RCCEx_PeriphCLKConfig+0x40a>
 81022da:	4a71      	ldr	r2, [pc, #452]	; (81024a0 <HAL_RCCEx_PeriphCLKConfig+0x5b4>)
 81022dc:	6ee9      	ldr	r1, [r5, #108]	; 0x6c
 81022de:	6d13      	ldr	r3, [r2, #80]	; 0x50
 81022e0:	f023 5340 	bic.w	r3, r3, #805306368	; 0x30000000
 81022e4:	430b      	orrs	r3, r1
 81022e6:	6513      	str	r3, [r2, #80]	; 0x50
 81022e8:	e6ea      	b.n	81020c0 <HAL_RCCEx_PeriphCLKConfig+0x1d4>
 81022ea:	2101      	movs	r1, #1
 81022ec:	1d28      	adds	r0, r5, #4
 81022ee:	f7ff fd0d 	bl	8101d0c <RCCEx_PLL2_Config>
 81022f2:	4604      	mov	r4, r0
 81022f4:	e7f0      	b.n	81022d8 <HAL_RCCEx_PeriphCLKConfig+0x3ec>
 81022f6:	4626      	mov	r6, r4
 81022f8:	e6e2      	b.n	81020c0 <HAL_RCCEx_PeriphCLKConfig+0x1d4>
 81022fa:	4a69      	ldr	r2, [pc, #420]	; (81024a0 <HAL_RCCEx_PeriphCLKConfig+0x5b4>)
 81022fc:	6ad3      	ldr	r3, [r2, #44]	; 0x2c
 81022fe:	f443 3300 	orr.w	r3, r3, #131072	; 0x20000
 8102302:	62d3      	str	r3, [r2, #44]	; 0x2c
 8102304:	2c00      	cmp	r4, #0
 8102306:	d14d      	bne.n	81023a4 <HAL_RCCEx_PeriphCLKConfig+0x4b8>
 8102308:	4a65      	ldr	r2, [pc, #404]	; (81024a0 <HAL_RCCEx_PeriphCLKConfig+0x5b4>)
 810230a:	6c69      	ldr	r1, [r5, #68]	; 0x44
 810230c:	6cd3      	ldr	r3, [r2, #76]	; 0x4c
 810230e:	f023 0303 	bic.w	r3, r3, #3
 8102312:	430b      	orrs	r3, r1
 8102314:	64d3      	str	r3, [r2, #76]	; 0x4c
 8102316:	682b      	ldr	r3, [r5, #0]
 8102318:	025f      	lsls	r7, r3, #9
 810231a:	d54d      	bpl.n	81023b8 <HAL_RCCEx_PeriphCLKConfig+0x4cc>
 810231c:	4f61      	ldr	r7, [pc, #388]	; (81024a4 <HAL_RCCEx_PeriphCLKConfig+0x5b8>)
 810231e:	683b      	ldr	r3, [r7, #0]
 8102320:	f443 7380 	orr.w	r3, r3, #256	; 0x100
 8102324:	603b      	str	r3, [r7, #0]
 8102326:	f7fe fc1b 	bl	8100b60 <HAL_GetTick>
 810232a:	4680      	mov	r8, r0
 810232c:	683b      	ldr	r3, [r7, #0]
 810232e:	05d8      	lsls	r0, r3, #23
 8102330:	d53a      	bpl.n	81023a8 <HAL_RCCEx_PeriphCLKConfig+0x4bc>
 8102332:	2c00      	cmp	r4, #0
 8102334:	d16c      	bne.n	8102410 <HAL_RCCEx_PeriphCLKConfig+0x524>
 8102336:	4b5a      	ldr	r3, [pc, #360]	; (81024a0 <HAL_RCCEx_PeriphCLKConfig+0x5b4>)
 8102338:	f8d5 00b0 	ldr.w	r0, [r5, #176]	; 0xb0
 810233c:	6f1a      	ldr	r2, [r3, #112]	; 0x70
 810233e:	4042      	eors	r2, r0
 8102340:	f412 7f40 	tst.w	r2, #768	; 0x300
 8102344:	d00b      	beq.n	810235e <HAL_RCCEx_PeriphCLKConfig+0x472>
 8102346:	6f1a      	ldr	r2, [r3, #112]	; 0x70
 8102348:	6f19      	ldr	r1, [r3, #112]	; 0x70
 810234a:	f441 3180 	orr.w	r1, r1, #65536	; 0x10000
 810234e:	6719      	str	r1, [r3, #112]	; 0x70
 8102350:	6f19      	ldr	r1, [r3, #112]	; 0x70
 8102352:	f422 7240 	bic.w	r2, r2, #768	; 0x300
 8102356:	f421 3180 	bic.w	r1, r1, #65536	; 0x10000
 810235a:	6719      	str	r1, [r3, #112]	; 0x70
 810235c:	671a      	str	r2, [r3, #112]	; 0x70
 810235e:	f5b0 7f80 	cmp.w	r0, #256	; 0x100
 8102362:	d040      	beq.n	81023e6 <HAL_RCCEx_PeriphCLKConfig+0x4fa>
 8102364:	f8d5 30b0 	ldr.w	r3, [r5, #176]	; 0xb0
 8102368:	494d      	ldr	r1, [pc, #308]	; (81024a0 <HAL_RCCEx_PeriphCLKConfig+0x5b4>)
 810236a:	f403 7240 	and.w	r2, r3, #768	; 0x300
 810236e:	f5b2 7f40 	cmp.w	r2, #768	; 0x300
 8102372:	d149      	bne.n	8102408 <HAL_RCCEx_PeriphCLKConfig+0x51c>
 8102374:	6908      	ldr	r0, [r1, #16]
 8102376:	4a4c      	ldr	r2, [pc, #304]	; (81024a8 <HAL_RCCEx_PeriphCLKConfig+0x5bc>)
 8102378:	f420 507c 	bic.w	r0, r0, #16128	; 0x3f00
 810237c:	ea02 1213 	and.w	r2, r2, r3, lsr #4
 8102380:	4302      	orrs	r2, r0
 8102382:	610a      	str	r2, [r1, #16]
 8102384:	4a46      	ldr	r2, [pc, #280]	; (81024a0 <HAL_RCCEx_PeriphCLKConfig+0x5b4>)
 8102386:	6f11      	ldr	r1, [r2, #112]	; 0x70
 8102388:	f3c3 030b 	ubfx	r3, r3, #0, #12
 810238c:	430b      	orrs	r3, r1
 810238e:	6713      	str	r3, [r2, #112]	; 0x70
 8102390:	e012      	b.n	81023b8 <HAL_RCCEx_PeriphCLKConfig+0x4cc>
 8102392:	2102      	movs	r1, #2
 8102394:	1d28      	adds	r0, r5, #4
 8102396:	f7ff fcb9 	bl	8101d0c <RCCEx_PLL2_Config>
 810239a:	4604      	mov	r4, r0
 810239c:	e7b2      	b.n	8102304 <HAL_RCCEx_PeriphCLKConfig+0x418>
 810239e:	2601      	movs	r6, #1
 81023a0:	4634      	mov	r4, r6
 81023a2:	e7b8      	b.n	8102316 <HAL_RCCEx_PeriphCLKConfig+0x42a>
 81023a4:	4626      	mov	r6, r4
 81023a6:	e7b6      	b.n	8102316 <HAL_RCCEx_PeriphCLKConfig+0x42a>
 81023a8:	f7fe fbda 	bl	8100b60 <HAL_GetTick>
 81023ac:	eba0 0008 	sub.w	r0, r0, r8
 81023b0:	2864      	cmp	r0, #100	; 0x64
 81023b2:	d9bb      	bls.n	810232c <HAL_RCCEx_PeriphCLKConfig+0x440>
 81023b4:	2603      	movs	r6, #3
 81023b6:	4634      	mov	r4, r6
 81023b8:	682b      	ldr	r3, [r5, #0]
 81023ba:	07da      	lsls	r2, r3, #31
 81023bc:	d508      	bpl.n	81023d0 <HAL_RCCEx_PeriphCLKConfig+0x4e4>
 81023be:	6fab      	ldr	r3, [r5, #120]	; 0x78
 81023c0:	2b10      	cmp	r3, #16
 81023c2:	d03c      	beq.n	810243e <HAL_RCCEx_PeriphCLKConfig+0x552>
 81023c4:	d826      	bhi.n	8102414 <HAL_RCCEx_PeriphCLKConfig+0x528>
 81023c6:	b35b      	cbz	r3, 8102420 <HAL_RCCEx_PeriphCLKConfig+0x534>
 81023c8:	2b08      	cmp	r3, #8
 81023ca:	d032      	beq.n	8102432 <HAL_RCCEx_PeriphCLKConfig+0x546>
 81023cc:	2601      	movs	r6, #1
 81023ce:	4634      	mov	r4, r6
 81023d0:	682b      	ldr	r3, [r5, #0]
 81023d2:	079b      	lsls	r3, r3, #30
 81023d4:	d548      	bpl.n	8102468 <HAL_RCCEx_PeriphCLKConfig+0x57c>
 81023d6:	6f6b      	ldr	r3, [r5, #116]	; 0x74
 81023d8:	2b05      	cmp	r3, #5
 81023da:	d85b      	bhi.n	8102494 <HAL_RCCEx_PeriphCLKConfig+0x5a8>
 81023dc:	e8df f003 	tbb	[pc, r3]
 81023e0:	3c54373c 	.word	0x3c54373c
 81023e4:	3c3c      	.short	0x3c3c
 81023e6:	f7fe fbbb 	bl	8100b60 <HAL_GetTick>
 81023ea:	f8df 80b4 	ldr.w	r8, [pc, #180]	; 81024a0 <HAL_RCCEx_PeriphCLKConfig+0x5b4>
 81023ee:	4607      	mov	r7, r0
 81023f0:	f241 3988 	movw	r9, #5000	; 0x1388
 81023f4:	f8d8 3070 	ldr.w	r3, [r8, #112]	; 0x70
 81023f8:	0799      	lsls	r1, r3, #30
 81023fa:	d4b3      	bmi.n	8102364 <HAL_RCCEx_PeriphCLKConfig+0x478>
 81023fc:	f7fe fbb0 	bl	8100b60 <HAL_GetTick>
 8102400:	1bc0      	subs	r0, r0, r7
 8102402:	4548      	cmp	r0, r9
 8102404:	d9f6      	bls.n	81023f4 <HAL_RCCEx_PeriphCLKConfig+0x508>
 8102406:	e7d5      	b.n	81023b4 <HAL_RCCEx_PeriphCLKConfig+0x4c8>
 8102408:	690a      	ldr	r2, [r1, #16]
 810240a:	f422 527c 	bic.w	r2, r2, #16128	; 0x3f00
 810240e:	e7b8      	b.n	8102382 <HAL_RCCEx_PeriphCLKConfig+0x496>
 8102410:	4626      	mov	r6, r4
 8102412:	e7d1      	b.n	81023b8 <HAL_RCCEx_PeriphCLKConfig+0x4cc>
 8102414:	f023 0208 	bic.w	r2, r3, #8
 8102418:	2a20      	cmp	r2, #32
 810241a:	d001      	beq.n	8102420 <HAL_RCCEx_PeriphCLKConfig+0x534>
 810241c:	2b18      	cmp	r3, #24
 810241e:	d1d5      	bne.n	81023cc <HAL_RCCEx_PeriphCLKConfig+0x4e0>
 8102420:	b99c      	cbnz	r4, 810244a <HAL_RCCEx_PeriphCLKConfig+0x55e>
 8102422:	4a1f      	ldr	r2, [pc, #124]	; (81024a0 <HAL_RCCEx_PeriphCLKConfig+0x5b4>)
 8102424:	6fa9      	ldr	r1, [r5, #120]	; 0x78
 8102426:	6d53      	ldr	r3, [r2, #84]	; 0x54
 8102428:	f023 0338 	bic.w	r3, r3, #56	; 0x38
 810242c:	430b      	orrs	r3, r1
 810242e:	6553      	str	r3, [r2, #84]	; 0x54
 8102430:	e7ce      	b.n	81023d0 <HAL_RCCEx_PeriphCLKConfig+0x4e4>
 8102432:	2101      	movs	r1, #1
 8102434:	1d28      	adds	r0, r5, #4
 8102436:	f7ff fc69 	bl	8101d0c <RCCEx_PLL2_Config>
 810243a:	4604      	mov	r4, r0
 810243c:	e7f0      	b.n	8102420 <HAL_RCCEx_PeriphCLKConfig+0x534>
 810243e:	2101      	movs	r1, #1
 8102440:	f105 0024 	add.w	r0, r5, #36	; 0x24
 8102444:	f7ff fcda 	bl	8101dfc <RCCEx_PLL3_Config>
 8102448:	e7f7      	b.n	810243a <HAL_RCCEx_PeriphCLKConfig+0x54e>
 810244a:	4626      	mov	r6, r4
 810244c:	e7c0      	b.n	81023d0 <HAL_RCCEx_PeriphCLKConfig+0x4e4>
 810244e:	2101      	movs	r1, #1
 8102450:	1d28      	adds	r0, r5, #4
 8102452:	f7ff fc5b 	bl	8101d0c <RCCEx_PLL2_Config>
 8102456:	4604      	mov	r4, r0
 8102458:	b9fc      	cbnz	r4, 810249a <HAL_RCCEx_PeriphCLKConfig+0x5ae>
 810245a:	4a11      	ldr	r2, [pc, #68]	; (81024a0 <HAL_RCCEx_PeriphCLKConfig+0x5b4>)
 810245c:	6f69      	ldr	r1, [r5, #116]	; 0x74
 810245e:	6d53      	ldr	r3, [r2, #84]	; 0x54
 8102460:	f023 0307 	bic.w	r3, r3, #7
 8102464:	430b      	orrs	r3, r1
 8102466:	6553      	str	r3, [r2, #84]	; 0x54
 8102468:	682b      	ldr	r3, [r5, #0]
 810246a:	075f      	lsls	r7, r3, #29
 810246c:	d52e      	bpl.n	81024cc <HAL_RCCEx_PeriphCLKConfig+0x5e0>
 810246e:	f8d5 3090 	ldr.w	r3, [r5, #144]	; 0x90
 8102472:	2b05      	cmp	r3, #5
 8102474:	f200 8140 	bhi.w	81026f8 <HAL_RCCEx_PeriphCLKConfig+0x80c>
 8102478:	e8df f013 	tbh	[pc, r3, lsl #1]
 810247c:	0018001d 	.word	0x0018001d
 8102480:	001d0138 	.word	0x001d0138
 8102484:	001d001d 	.word	0x001d001d
 8102488:	2101      	movs	r1, #1
 810248a:	f105 0024 	add.w	r0, r5, #36	; 0x24
 810248e:	f7ff fcb5 	bl	8101dfc <RCCEx_PLL3_Config>
 8102492:	e7e0      	b.n	8102456 <HAL_RCCEx_PeriphCLKConfig+0x56a>
 8102494:	2601      	movs	r6, #1
 8102496:	4634      	mov	r4, r6
 8102498:	e7e6      	b.n	8102468 <HAL_RCCEx_PeriphCLKConfig+0x57c>
 810249a:	4626      	mov	r6, r4
 810249c:	e7e4      	b.n	8102468 <HAL_RCCEx_PeriphCLKConfig+0x57c>
 810249e:	bf00      	nop
 81024a0:	58024400 	.word	0x58024400
 81024a4:	58024800 	.word	0x58024800
 81024a8:	00ffffcf 	.word	0x00ffffcf
 81024ac:	2101      	movs	r1, #1
 81024ae:	1d28      	adds	r0, r5, #4
 81024b0:	f7ff fc2c 	bl	8101d0c <RCCEx_PLL2_Config>
 81024b4:	4604      	mov	r4, r0
 81024b6:	2c00      	cmp	r4, #0
 81024b8:	f040 8121 	bne.w	81026fe <HAL_RCCEx_PeriphCLKConfig+0x812>
 81024bc:	4ab2      	ldr	r2, [pc, #712]	; (8102788 <HAL_RCCEx_PeriphCLKConfig+0x89c>)
 81024be:	f8d5 1090 	ldr.w	r1, [r5, #144]	; 0x90
 81024c2:	6d93      	ldr	r3, [r2, #88]	; 0x58
 81024c4:	f023 0307 	bic.w	r3, r3, #7
 81024c8:	430b      	orrs	r3, r1
 81024ca:	6593      	str	r3, [r2, #88]	; 0x58
 81024cc:	682b      	ldr	r3, [r5, #0]
 81024ce:	0698      	lsls	r0, r3, #26
 81024d0:	d510      	bpl.n	81024f4 <HAL_RCCEx_PeriphCLKConfig+0x608>
 81024d2:	f8d5 308c 	ldr.w	r3, [r5, #140]	; 0x8c
 81024d6:	f1b3 5f00 	cmp.w	r3, #536870912	; 0x20000000
 81024da:	f000 812b 	beq.w	8102734 <HAL_RCCEx_PeriphCLKConfig+0x848>
 81024de:	f200 8110 	bhi.w	8102702 <HAL_RCCEx_PeriphCLKConfig+0x816>
 81024e2:	2b00      	cmp	r3, #0
 81024e4:	f000 8116 	beq.w	8102714 <HAL_RCCEx_PeriphCLKConfig+0x828>
 81024e8:	f1b3 5f80 	cmp.w	r3, #268435456	; 0x10000000
 81024ec:	f000 811c 	beq.w	8102728 <HAL_RCCEx_PeriphCLKConfig+0x83c>
 81024f0:	2601      	movs	r6, #1
 81024f2:	4634      	mov	r4, r6
 81024f4:	682b      	ldr	r3, [r5, #0]
 81024f6:	0659      	lsls	r1, r3, #25
 81024f8:	d510      	bpl.n	810251c <HAL_RCCEx_PeriphCLKConfig+0x630>
 81024fa:	f8d5 3098 	ldr.w	r3, [r5, #152]	; 0x98
 81024fe:	f5b3 6f00 	cmp.w	r3, #2048	; 0x800
 8102502:	f000 8138 	beq.w	8102776 <HAL_RCCEx_PeriphCLKConfig+0x88a>
 8102506:	f200 811d 	bhi.w	8102744 <HAL_RCCEx_PeriphCLKConfig+0x858>
 810250a:	2b00      	cmp	r3, #0
 810250c:	f000 8123 	beq.w	8102756 <HAL_RCCEx_PeriphCLKConfig+0x86a>
 8102510:	f5b3 6f80 	cmp.w	r3, #1024	; 0x400
 8102514:	f000 8129 	beq.w	810276a <HAL_RCCEx_PeriphCLKConfig+0x87e>
 8102518:	2601      	movs	r6, #1
 810251a:	4634      	mov	r4, r6
 810251c:	682b      	ldr	r3, [r5, #0]
 810251e:	061a      	lsls	r2, r3, #24
 8102520:	d510      	bpl.n	8102544 <HAL_RCCEx_PeriphCLKConfig+0x658>
 8102522:	f8d5 309c 	ldr.w	r3, [r5, #156]	; 0x9c
 8102526:	f5b3 4f80 	cmp.w	r3, #16384	; 0x4000
 810252a:	f000 8148 	beq.w	81027be <HAL_RCCEx_PeriphCLKConfig+0x8d2>
 810252e:	f200 812d 	bhi.w	810278c <HAL_RCCEx_PeriphCLKConfig+0x8a0>
 8102532:	2b00      	cmp	r3, #0
 8102534:	f000 8133 	beq.w	810279e <HAL_RCCEx_PeriphCLKConfig+0x8b2>
 8102538:	f5b3 5f00 	cmp.w	r3, #8192	; 0x2000
 810253c:	f000 8139 	beq.w	81027b2 <HAL_RCCEx_PeriphCLKConfig+0x8c6>
 8102540:	2601      	movs	r6, #1
 8102542:	4634      	mov	r4, r6
 8102544:	682b      	ldr	r3, [r5, #0]
 8102546:	071b      	lsls	r3, r3, #28
 8102548:	d514      	bpl.n	8102574 <HAL_RCCEx_PeriphCLKConfig+0x688>
 810254a:	f8d5 3080 	ldr.w	r3, [r5, #128]	; 0x80
 810254e:	f5b3 5f80 	cmp.w	r3, #4096	; 0x1000
 8102552:	d107      	bne.n	8102564 <HAL_RCCEx_PeriphCLKConfig+0x678>
 8102554:	2102      	movs	r1, #2
 8102556:	f105 0024 	add.w	r0, r5, #36	; 0x24
 810255a:	f7ff fc4f 	bl	8101dfc <RCCEx_PLL3_Config>
 810255e:	2800      	cmp	r0, #0
 8102560:	bf18      	it	ne
 8102562:	2601      	movne	r6, #1
 8102564:	4a88      	ldr	r2, [pc, #544]	; (8102788 <HAL_RCCEx_PeriphCLKConfig+0x89c>)
 8102566:	f8d5 1080 	ldr.w	r1, [r5, #128]	; 0x80
 810256a:	6d53      	ldr	r3, [r2, #84]	; 0x54
 810256c:	f423 5340 	bic.w	r3, r3, #12288	; 0x3000
 8102570:	430b      	orrs	r3, r1
 8102572:	6553      	str	r3, [r2, #84]	; 0x54
 8102574:	682b      	ldr	r3, [r5, #0]
 8102576:	06df      	lsls	r7, r3, #27
 8102578:	d514      	bpl.n	81025a4 <HAL_RCCEx_PeriphCLKConfig+0x6b8>
 810257a:	f8d5 3094 	ldr.w	r3, [r5, #148]	; 0x94
 810257e:	f5b3 7f80 	cmp.w	r3, #256	; 0x100
 8102582:	d107      	bne.n	8102594 <HAL_RCCEx_PeriphCLKConfig+0x6a8>
 8102584:	2102      	movs	r1, #2
 8102586:	f105 0024 	add.w	r0, r5, #36	; 0x24
 810258a:	f7ff fc37 	bl	8101dfc <RCCEx_PLL3_Config>
 810258e:	2800      	cmp	r0, #0
 8102590:	bf18      	it	ne
 8102592:	2601      	movne	r6, #1
 8102594:	4a7c      	ldr	r2, [pc, #496]	; (8102788 <HAL_RCCEx_PeriphCLKConfig+0x89c>)
 8102596:	f8d5 1094 	ldr.w	r1, [r5, #148]	; 0x94
 810259a:	6d93      	ldr	r3, [r2, #88]	; 0x58
 810259c:	f423 7340 	bic.w	r3, r3, #768	; 0x300
 81025a0:	430b      	orrs	r3, r1
 81025a2:	6593      	str	r3, [r2, #88]	; 0x58
 81025a4:	682b      	ldr	r3, [r5, #0]
 81025a6:	0318      	lsls	r0, r3, #12
 81025a8:	d51a      	bpl.n	81025e0 <HAL_RCCEx_PeriphCLKConfig+0x6f4>
 81025aa:	f8d5 10a0 	ldr.w	r1, [r5, #160]	; 0xa0
 81025ae:	f5b1 3f80 	cmp.w	r1, #65536	; 0x10000
 81025b2:	f000 810c 	beq.w	81027ce <HAL_RCCEx_PeriphCLKConfig+0x8e2>
 81025b6:	f5b1 3f00 	cmp.w	r1, #131072	; 0x20000
 81025ba:	d006      	beq.n	81025ca <HAL_RCCEx_PeriphCLKConfig+0x6de>
 81025bc:	2900      	cmp	r1, #0
 81025be:	f040 810c 	bne.w	81027da <HAL_RCCEx_PeriphCLKConfig+0x8ee>
 81025c2:	1d28      	adds	r0, r5, #4
 81025c4:	f7ff fba2 	bl	8101d0c <RCCEx_PLL2_Config>
 81025c8:	4604      	mov	r4, r0
 81025ca:	2c00      	cmp	r4, #0
 81025cc:	f040 8108 	bne.w	81027e0 <HAL_RCCEx_PeriphCLKConfig+0x8f4>
 81025d0:	4a6d      	ldr	r2, [pc, #436]	; (8102788 <HAL_RCCEx_PeriphCLKConfig+0x89c>)
 81025d2:	f8d5 10a0 	ldr.w	r1, [r5, #160]	; 0xa0
 81025d6:	6d93      	ldr	r3, [r2, #88]	; 0x58
 81025d8:	f423 3340 	bic.w	r3, r3, #196608	; 0x30000
 81025dc:	430b      	orrs	r3, r1
 81025de:	6593      	str	r3, [r2, #88]	; 0x58
 81025e0:	682b      	ldr	r3, [r5, #0]
 81025e2:	0359      	lsls	r1, r3, #13
 81025e4:	d51c      	bpl.n	8102620 <HAL_RCCEx_PeriphCLKConfig+0x734>
 81025e6:	f8d5 3084 	ldr.w	r3, [r5, #132]	; 0x84
 81025ea:	f5b3 1f00 	cmp.w	r3, #2097152	; 0x200000
 81025ee:	f000 80f9 	beq.w	81027e4 <HAL_RCCEx_PeriphCLKConfig+0x8f8>
 81025f2:	f5b3 1f40 	cmp.w	r3, #3145728	; 0x300000
 81025f6:	d008      	beq.n	810260a <HAL_RCCEx_PeriphCLKConfig+0x71e>
 81025f8:	f5b3 1f80 	cmp.w	r3, #1048576	; 0x100000
 81025fc:	f040 80f9 	bne.w	81027f2 <HAL_RCCEx_PeriphCLKConfig+0x906>
 8102600:	4a61      	ldr	r2, [pc, #388]	; (8102788 <HAL_RCCEx_PeriphCLKConfig+0x89c>)
 8102602:	6ad3      	ldr	r3, [r2, #44]	; 0x2c
 8102604:	f443 3300 	orr.w	r3, r3, #131072	; 0x20000
 8102608:	62d3      	str	r3, [r2, #44]	; 0x2c
 810260a:	2c00      	cmp	r4, #0
 810260c:	f040 80f4 	bne.w	81027f8 <HAL_RCCEx_PeriphCLKConfig+0x90c>
 8102610:	4a5d      	ldr	r2, [pc, #372]	; (8102788 <HAL_RCCEx_PeriphCLKConfig+0x89c>)
 8102612:	f8d5 1084 	ldr.w	r1, [r5, #132]	; 0x84
 8102616:	6d53      	ldr	r3, [r2, #84]	; 0x54
 8102618:	f423 1340 	bic.w	r3, r3, #3145728	; 0x300000
 810261c:	430b      	orrs	r3, r1
 810261e:	6553      	str	r3, [r2, #84]	; 0x54
 8102620:	682b      	ldr	r3, [r5, #0]
 8102622:	03da      	lsls	r2, r3, #15
 8102624:	d509      	bpl.n	810263a <HAL_RCCEx_PeriphCLKConfig+0x74e>
 8102626:	6ceb      	ldr	r3, [r5, #76]	; 0x4c
 8102628:	2b00      	cmp	r3, #0
 810262a:	f000 80e7 	beq.w	81027fc <HAL_RCCEx_PeriphCLKConfig+0x910>
 810262e:	f5b3 3f80 	cmp.w	r3, #65536	; 0x10000
 8102632:	f000 80f1 	beq.w	8102818 <HAL_RCCEx_PeriphCLKConfig+0x92c>
 8102636:	2601      	movs	r6, #1
 8102638:	4634      	mov	r4, r6
 810263a:	682b      	ldr	r3, [r5, #0]
 810263c:	009b      	lsls	r3, r3, #2
 810263e:	d507      	bpl.n	8102650 <HAL_RCCEx_PeriphCLKConfig+0x764>
 8102640:	2102      	movs	r1, #2
 8102642:	f105 0024 	add.w	r0, r5, #36	; 0x24
 8102646:	f7ff fbd9 	bl	8101dfc <RCCEx_PLL3_Config>
 810264a:	2800      	cmp	r0, #0
 810264c:	bf18      	it	ne
 810264e:	2601      	movne	r6, #1
 8102650:	682b      	ldr	r3, [r5, #0]
 8102652:	039f      	lsls	r7, r3, #14
 8102654:	d50a      	bpl.n	810266c <HAL_RCCEx_PeriphCLKConfig+0x780>
 8102656:	6fe9      	ldr	r1, [r5, #124]	; 0x7c
 8102658:	f5b1 7f80 	cmp.w	r1, #256	; 0x100
 810265c:	f000 80f2 	beq.w	8102844 <HAL_RCCEx_PeriphCLKConfig+0x958>
 8102660:	f200 80e2 	bhi.w	8102828 <HAL_RCCEx_PeriphCLKConfig+0x93c>
 8102664:	2900      	cmp	r1, #0
 8102666:	f000 80e5 	beq.w	8102834 <HAL_RCCEx_PeriphCLKConfig+0x948>
 810266a:	2601      	movs	r6, #1
 810266c:	02dc      	lsls	r4, r3, #11
 810266e:	d506      	bpl.n	810267e <HAL_RCCEx_PeriphCLKConfig+0x792>
 8102670:	4945      	ldr	r1, [pc, #276]	; (8102788 <HAL_RCCEx_PeriphCLKConfig+0x89c>)
 8102672:	6f28      	ldr	r0, [r5, #112]	; 0x70
 8102674:	6d0a      	ldr	r2, [r1, #80]	; 0x50
 8102676:	f022 4200 	bic.w	r2, r2, #2147483648	; 0x80000000
 810267a:	4302      	orrs	r2, r0
 810267c:	650a      	str	r2, [r1, #80]	; 0x50
 810267e:	00d8      	lsls	r0, r3, #3
 8102680:	d507      	bpl.n	8102692 <HAL_RCCEx_PeriphCLKConfig+0x7a6>
 8102682:	4941      	ldr	r1, [pc, #260]	; (8102788 <HAL_RCCEx_PeriphCLKConfig+0x89c>)
 8102684:	f8d5 00b4 	ldr.w	r0, [r5, #180]	; 0xb4
 8102688:	690a      	ldr	r2, [r1, #16]
 810268a:	f422 4280 	bic.w	r2, r2, #16384	; 0x4000
 810268e:	4302      	orrs	r2, r0
 8102690:	610a      	str	r2, [r1, #16]
 8102692:	0299      	lsls	r1, r3, #10
 8102694:	d506      	bpl.n	81026a4 <HAL_RCCEx_PeriphCLKConfig+0x7b8>
 8102696:	493c      	ldr	r1, [pc, #240]	; (8102788 <HAL_RCCEx_PeriphCLKConfig+0x89c>)
 8102698:	6ea8      	ldr	r0, [r5, #104]	; 0x68
 810269a:	6d0a      	ldr	r2, [r1, #80]	; 0x50
 810269c:	f022 7280 	bic.w	r2, r2, #16777216	; 0x1000000
 81026a0:	4302      	orrs	r2, r0
 81026a2:	650a      	str	r2, [r1, #80]	; 0x50
 81026a4:	005a      	lsls	r2, r3, #1
 81026a6:	d509      	bpl.n	81026bc <HAL_RCCEx_PeriphCLKConfig+0x7d0>
 81026a8:	4a37      	ldr	r2, [pc, #220]	; (8102788 <HAL_RCCEx_PeriphCLKConfig+0x89c>)
 81026aa:	6911      	ldr	r1, [r2, #16]
 81026ac:	f421 4100 	bic.w	r1, r1, #32768	; 0x8000
 81026b0:	6111      	str	r1, [r2, #16]
 81026b2:	6911      	ldr	r1, [r2, #16]
 81026b4:	f8d5 00b8 	ldr.w	r0, [r5, #184]	; 0xb8
 81026b8:	4301      	orrs	r1, r0
 81026ba:	6111      	str	r1, [r2, #16]
 81026bc:	2b00      	cmp	r3, #0
 81026be:	da06      	bge.n	81026ce <HAL_RCCEx_PeriphCLKConfig+0x7e2>
 81026c0:	4931      	ldr	r1, [pc, #196]	; (8102788 <HAL_RCCEx_PeriphCLKConfig+0x89c>)
 81026c2:	6d28      	ldr	r0, [r5, #80]	; 0x50
 81026c4:	6cca      	ldr	r2, [r1, #76]	; 0x4c
 81026c6:	f022 5240 	bic.w	r2, r2, #805306368	; 0x30000000
 81026ca:	4302      	orrs	r2, r0
 81026cc:	64ca      	str	r2, [r1, #76]	; 0x4c
 81026ce:	021b      	lsls	r3, r3, #8
 81026d0:	d507      	bpl.n	81026e2 <HAL_RCCEx_PeriphCLKConfig+0x7f6>
 81026d2:	4a2d      	ldr	r2, [pc, #180]	; (8102788 <HAL_RCCEx_PeriphCLKConfig+0x89c>)
 81026d4:	f8d5 1088 	ldr.w	r1, [r5, #136]	; 0x88
 81026d8:	6d53      	ldr	r3, [r2, #84]	; 0x54
 81026da:	f423 0340 	bic.w	r3, r3, #12582912	; 0xc00000
 81026de:	430b      	orrs	r3, r1
 81026e0:	6553      	str	r3, [r2, #84]	; 0x54
 81026e2:	1e30      	subs	r0, r6, #0
 81026e4:	bf18      	it	ne
 81026e6:	2001      	movne	r0, #1
 81026e8:	e8bd 83f8 	ldmia.w	sp!, {r3, r4, r5, r6, r7, r8, r9, pc}
 81026ec:	2101      	movs	r1, #1
 81026ee:	f105 0024 	add.w	r0, r5, #36	; 0x24
 81026f2:	f7ff fb83 	bl	8101dfc <RCCEx_PLL3_Config>
 81026f6:	e6dd      	b.n	81024b4 <HAL_RCCEx_PeriphCLKConfig+0x5c8>
 81026f8:	2601      	movs	r6, #1
 81026fa:	4634      	mov	r4, r6
 81026fc:	e6e6      	b.n	81024cc <HAL_RCCEx_PeriphCLKConfig+0x5e0>
 81026fe:	4626      	mov	r6, r4
 8102700:	e6e4      	b.n	81024cc <HAL_RCCEx_PeriphCLKConfig+0x5e0>
 8102702:	f023 5280 	bic.w	r2, r3, #268435456	; 0x10000000
 8102706:	f1b2 4f80 	cmp.w	r2, #1073741824	; 0x40000000
 810270a:	d003      	beq.n	8102714 <HAL_RCCEx_PeriphCLKConfig+0x828>
 810270c:	f1b3 5f40 	cmp.w	r3, #805306368	; 0x30000000
 8102710:	f47f aeee 	bne.w	81024f0 <HAL_RCCEx_PeriphCLKConfig+0x604>
 8102714:	b9a4      	cbnz	r4, 8102740 <HAL_RCCEx_PeriphCLKConfig+0x854>
 8102716:	4a1c      	ldr	r2, [pc, #112]	; (8102788 <HAL_RCCEx_PeriphCLKConfig+0x89c>)
 8102718:	f8d5 108c 	ldr.w	r1, [r5, #140]	; 0x8c
 810271c:	6d53      	ldr	r3, [r2, #84]	; 0x54
 810271e:	f023 43e0 	bic.w	r3, r3, #1879048192	; 0x70000000
 8102722:	430b      	orrs	r3, r1
 8102724:	6553      	str	r3, [r2, #84]	; 0x54
 8102726:	e6e5      	b.n	81024f4 <HAL_RCCEx_PeriphCLKConfig+0x608>
 8102728:	2100      	movs	r1, #0
 810272a:	1d28      	adds	r0, r5, #4
 810272c:	f7ff faee 	bl	8101d0c <RCCEx_PLL2_Config>
 8102730:	4604      	mov	r4, r0
 8102732:	e7ef      	b.n	8102714 <HAL_RCCEx_PeriphCLKConfig+0x828>
 8102734:	2102      	movs	r1, #2
 8102736:	f105 0024 	add.w	r0, r5, #36	; 0x24
 810273a:	f7ff fb5f 	bl	8101dfc <RCCEx_PLL3_Config>
 810273e:	e7f7      	b.n	8102730 <HAL_RCCEx_PeriphCLKConfig+0x844>
 8102740:	4626      	mov	r6, r4
 8102742:	e6d7      	b.n	81024f4 <HAL_RCCEx_PeriphCLKConfig+0x608>
 8102744:	f423 6280 	bic.w	r2, r3, #1024	; 0x400
 8102748:	f5b2 5f80 	cmp.w	r2, #4096	; 0x1000
 810274c:	d003      	beq.n	8102756 <HAL_RCCEx_PeriphCLKConfig+0x86a>
 810274e:	f5b3 6f40 	cmp.w	r3, #3072	; 0xc00
 8102752:	f47f aee1 	bne.w	8102518 <HAL_RCCEx_PeriphCLKConfig+0x62c>
 8102756:	b9a4      	cbnz	r4, 8102782 <HAL_RCCEx_PeriphCLKConfig+0x896>
 8102758:	4a0b      	ldr	r2, [pc, #44]	; (8102788 <HAL_RCCEx_PeriphCLKConfig+0x89c>)
 810275a:	f8d5 1098 	ldr.w	r1, [r5, #152]	; 0x98
 810275e:	6d93      	ldr	r3, [r2, #88]	; 0x58
 8102760:	f423 53e0 	bic.w	r3, r3, #7168	; 0x1c00
 8102764:	430b      	orrs	r3, r1
 8102766:	6593      	str	r3, [r2, #88]	; 0x58
 8102768:	e6d8      	b.n	810251c <HAL_RCCEx_PeriphCLKConfig+0x630>
 810276a:	2100      	movs	r1, #0
 810276c:	1d28      	adds	r0, r5, #4
 810276e:	f7ff facd 	bl	8101d0c <RCCEx_PLL2_Config>
 8102772:	4604      	mov	r4, r0
 8102774:	e7ef      	b.n	8102756 <HAL_RCCEx_PeriphCLKConfig+0x86a>
 8102776:	2102      	movs	r1, #2
 8102778:	f105 0024 	add.w	r0, r5, #36	; 0x24
 810277c:	f7ff fb3e 	bl	8101dfc <RCCEx_PLL3_Config>
 8102780:	e7f7      	b.n	8102772 <HAL_RCCEx_PeriphCLKConfig+0x886>
 8102782:	4626      	mov	r6, r4
 8102784:	e6ca      	b.n	810251c <HAL_RCCEx_PeriphCLKConfig+0x630>
 8102786:	bf00      	nop
 8102788:	58024400 	.word	0x58024400
 810278c:	f423 5200 	bic.w	r2, r3, #8192	; 0x2000
 8102790:	f5b2 4f00 	cmp.w	r2, #32768	; 0x8000
 8102794:	d003      	beq.n	810279e <HAL_RCCEx_PeriphCLKConfig+0x8b2>
 8102796:	f5b3 4fc0 	cmp.w	r3, #24576	; 0x6000
 810279a:	f47f aed1 	bne.w	8102540 <HAL_RCCEx_PeriphCLKConfig+0x654>
 810279e:	b9a4      	cbnz	r4, 81027ca <HAL_RCCEx_PeriphCLKConfig+0x8de>
 81027a0:	4a2c      	ldr	r2, [pc, #176]	; (8102854 <HAL_RCCEx_PeriphCLKConfig+0x968>)
 81027a2:	f8d5 109c 	ldr.w	r1, [r5, #156]	; 0x9c
 81027a6:	6d93      	ldr	r3, [r2, #88]	; 0x58
 81027a8:	f423 4360 	bic.w	r3, r3, #57344	; 0xe000
 81027ac:	430b      	orrs	r3, r1
 81027ae:	6593      	str	r3, [r2, #88]	; 0x58
 81027b0:	e6c8      	b.n	8102544 <HAL_RCCEx_PeriphCLKConfig+0x658>
 81027b2:	2100      	movs	r1, #0
 81027b4:	1d28      	adds	r0, r5, #4
 81027b6:	f7ff faa9 	bl	8101d0c <RCCEx_PLL2_Config>
 81027ba:	4604      	mov	r4, r0
 81027bc:	e7ef      	b.n	810279e <HAL_RCCEx_PeriphCLKConfig+0x8b2>
 81027be:	2102      	movs	r1, #2
 81027c0:	f105 0024 	add.w	r0, r5, #36	; 0x24
 81027c4:	f7ff fb1a 	bl	8101dfc <RCCEx_PLL3_Config>
 81027c8:	e7f7      	b.n	81027ba <HAL_RCCEx_PeriphCLKConfig+0x8ce>
 81027ca:	4626      	mov	r6, r4
 81027cc:	e6ba      	b.n	8102544 <HAL_RCCEx_PeriphCLKConfig+0x658>
 81027ce:	2102      	movs	r1, #2
 81027d0:	f105 0024 	add.w	r0, r5, #36	; 0x24
 81027d4:	f7ff fb12 	bl	8101dfc <RCCEx_PLL3_Config>
 81027d8:	e6f6      	b.n	81025c8 <HAL_RCCEx_PeriphCLKConfig+0x6dc>
 81027da:	2601      	movs	r6, #1
 81027dc:	4634      	mov	r4, r6
 81027de:	e6ff      	b.n	81025e0 <HAL_RCCEx_PeriphCLKConfig+0x6f4>
 81027e0:	4626      	mov	r6, r4
 81027e2:	e6fd      	b.n	81025e0 <HAL_RCCEx_PeriphCLKConfig+0x6f4>
 81027e4:	2101      	movs	r1, #1
 81027e6:	f105 0024 	add.w	r0, r5, #36	; 0x24
 81027ea:	f7ff fb07 	bl	8101dfc <RCCEx_PLL3_Config>
 81027ee:	4604      	mov	r4, r0
 81027f0:	e70b      	b.n	810260a <HAL_RCCEx_PeriphCLKConfig+0x71e>
 81027f2:	2601      	movs	r6, #1
 81027f4:	4634      	mov	r4, r6
 81027f6:	e713      	b.n	8102620 <HAL_RCCEx_PeriphCLKConfig+0x734>
 81027f8:	4626      	mov	r6, r4
 81027fa:	e711      	b.n	8102620 <HAL_RCCEx_PeriphCLKConfig+0x734>
 81027fc:	4a15      	ldr	r2, [pc, #84]	; (8102854 <HAL_RCCEx_PeriphCLKConfig+0x968>)
 81027fe:	6ad3      	ldr	r3, [r2, #44]	; 0x2c
 8102800:	f443 3300 	orr.w	r3, r3, #131072	; 0x20000
 8102804:	62d3      	str	r3, [r2, #44]	; 0x2c
 8102806:	b96c      	cbnz	r4, 8102824 <HAL_RCCEx_PeriphCLKConfig+0x938>
 8102808:	4a12      	ldr	r2, [pc, #72]	; (8102854 <HAL_RCCEx_PeriphCLKConfig+0x968>)
 810280a:	6ce9      	ldr	r1, [r5, #76]	; 0x4c
 810280c:	6cd3      	ldr	r3, [r2, #76]	; 0x4c
 810280e:	f423 3380 	bic.w	r3, r3, #65536	; 0x10000
 8102812:	430b      	orrs	r3, r1
 8102814:	64d3      	str	r3, [r2, #76]	; 0x4c
 8102816:	e710      	b.n	810263a <HAL_RCCEx_PeriphCLKConfig+0x74e>
 8102818:	2102      	movs	r1, #2
 810281a:	1d28      	adds	r0, r5, #4
 810281c:	f7ff fa76 	bl	8101d0c <RCCEx_PLL2_Config>
 8102820:	4604      	mov	r4, r0
 8102822:	e7f0      	b.n	8102806 <HAL_RCCEx_PeriphCLKConfig+0x91a>
 8102824:	4626      	mov	r6, r4
 8102826:	e708      	b.n	810263a <HAL_RCCEx_PeriphCLKConfig+0x74e>
 8102828:	f421 7280 	bic.w	r2, r1, #256	; 0x100
 810282c:	f5b2 7f00 	cmp.w	r2, #512	; 0x200
 8102830:	f47f af1b 	bne.w	810266a <HAL_RCCEx_PeriphCLKConfig+0x77e>
 8102834:	b964      	cbnz	r4, 8102850 <HAL_RCCEx_PeriphCLKConfig+0x964>
 8102836:	4807      	ldr	r0, [pc, #28]	; (8102854 <HAL_RCCEx_PeriphCLKConfig+0x968>)
 8102838:	6d42      	ldr	r2, [r0, #84]	; 0x54
 810283a:	f422 7240 	bic.w	r2, r2, #768	; 0x300
 810283e:	430a      	orrs	r2, r1
 8102840:	6542      	str	r2, [r0, #84]	; 0x54
 8102842:	e713      	b.n	810266c <HAL_RCCEx_PeriphCLKConfig+0x780>
 8102844:	4803      	ldr	r0, [pc, #12]	; (8102854 <HAL_RCCEx_PeriphCLKConfig+0x968>)
 8102846:	6ac2      	ldr	r2, [r0, #44]	; 0x2c
 8102848:	f442 3200 	orr.w	r2, r2, #131072	; 0x20000
 810284c:	62c2      	str	r2, [r0, #44]	; 0x2c
 810284e:	e7f1      	b.n	8102834 <HAL_RCCEx_PeriphCLKConfig+0x948>
 8102850:	4626      	mov	r6, r4
 8102852:	e70b      	b.n	810266c <HAL_RCCEx_PeriphCLKConfig+0x780>
 8102854:	58024400 	.word	0x58024400

08102858 <HAL_RCCEx_GetD3PCLK1Freq>:
 8102858:	b508      	push	{r3, lr}
 810285a:	f7ff fa37 	bl	8101ccc <HAL_RCC_GetHCLKFreq>
 810285e:	4b05      	ldr	r3, [pc, #20]	; (8102874 <HAL_RCCEx_GetD3PCLK1Freq+0x1c>)
 8102860:	4a05      	ldr	r2, [pc, #20]	; (8102878 <HAL_RCCEx_GetD3PCLK1Freq+0x20>)
 8102862:	6a1b      	ldr	r3, [r3, #32]
 8102864:	f3c3 1302 	ubfx	r3, r3, #4, #3
 8102868:	5cd3      	ldrb	r3, [r2, r3]
 810286a:	f003 031f 	and.w	r3, r3, #31
 810286e:	40d8      	lsrs	r0, r3
 8102870:	bd08      	pop	{r3, pc}
 8102872:	bf00      	nop
 8102874:	58024400 	.word	0x58024400
 8102878:	08103ae4 	.word	0x08103ae4

0810287c <HAL_RCCEx_GetPLL2ClockFreq>:
 810287c:	4a4e      	ldr	r2, [pc, #312]	; (81029b8 <HAL_RCCEx_GetPLL2ClockFreq+0x13c>)
 810287e:	b570      	push	{r4, r5, r6, lr}
 8102880:	6a94      	ldr	r4, [r2, #40]	; 0x28
 8102882:	6a96      	ldr	r6, [r2, #40]	; 0x28
 8102884:	6ad3      	ldr	r3, [r2, #44]	; 0x2c
 8102886:	6bd5      	ldr	r5, [r2, #60]	; 0x3c
 8102888:	f416 3f7c 	tst.w	r6, #258048	; 0x3f000
 810288c:	f3c6 3105 	ubfx	r1, r6, #12, #6
 8102890:	f000 808d 	beq.w	81029ae <HAL_RCCEx_GetPLL2ClockFreq+0x132>
 8102894:	ee07 1a90 	vmov	s15, r1
 8102898:	f3c3 1300 	ubfx	r3, r3, #4, #1
 810289c:	f3c5 01cc 	ubfx	r1, r5, #3, #13
 81028a0:	434b      	muls	r3, r1
 81028a2:	eef8 6ae7 	vcvt.f32.s32	s13, s15
 81028a6:	f004 0403 	and.w	r4, r4, #3
 81028aa:	ee07 3a90 	vmov	s15, r3
 81028ae:	2c01      	cmp	r4, #1
 81028b0:	eefa 7ae9 	vcvt.f32.s32	s15, s15, #13
 81028b4:	eeb7 6a00 	vmov.f32	s12, #112	; 0x3f800000  1.0
 81028b8:	d06b      	beq.n	8102992 <HAL_RCCEx_GetPLL2ClockFreq+0x116>
 81028ba:	2c02      	cmp	r4, #2
 81028bc:	d05b      	beq.n	8102976 <HAL_RCCEx_GetPLL2ClockFreq+0xfa>
 81028be:	2c00      	cmp	r4, #0
 81028c0:	d167      	bne.n	8102992 <HAL_RCCEx_GetPLL2ClockFreq+0x116>
 81028c2:	6813      	ldr	r3, [r2, #0]
 81028c4:	069b      	lsls	r3, r3, #26
 81028c6:	d546      	bpl.n	8102956 <HAL_RCCEx_GetPLL2ClockFreq+0xda>
 81028c8:	6811      	ldr	r1, [r2, #0]
 81028ca:	6b93      	ldr	r3, [r2, #56]	; 0x38
 81028cc:	4a3b      	ldr	r2, [pc, #236]	; (81029bc <HAL_RCCEx_GetPLL2ClockFreq+0x140>)
 81028ce:	f3c1 01c1 	ubfx	r1, r1, #3, #2
 81028d2:	40ca      	lsrs	r2, r1
 81028d4:	ee07 2a10 	vmov	s14, r2
 81028d8:	eef8 5ac7 	vcvt.f32.s32	s11, s14
 81028dc:	f3c3 0308 	ubfx	r3, r3, #0, #9
 81028e0:	ee85 7aa6 	vdiv.f32	s14, s11, s13
 81028e4:	ee06 3a90 	vmov	s13, r3
 81028e8:	eef8 6ae6 	vcvt.f32.s32	s13, s13
 81028ec:	ee76 7aa7 	vadd.f32	s15, s13, s15
 81028f0:	ee77 7a86 	vadd.f32	s15, s15, s12
 81028f4:	4a30      	ldr	r2, [pc, #192]	; (81029b8 <HAL_RCCEx_GetPLL2ClockFreq+0x13c>)
 81028f6:	6b93      	ldr	r3, [r2, #56]	; 0x38
 81028f8:	f3c3 2346 	ubfx	r3, r3, #9, #7
 81028fc:	ee67 7a87 	vmul.f32	s15, s15, s14
 8102900:	ee07 3a10 	vmov	s14, r3
 8102904:	eeb8 7ac7 	vcvt.f32.s32	s14, s14
 8102908:	ee37 7a06 	vadd.f32	s14, s14, s12
 810290c:	eec7 6a87 	vdiv.f32	s13, s15, s14
 8102910:	eefc 6ae6 	vcvt.u32.f32	s13, s13
 8102914:	edc0 6a00 	vstr	s13, [r0]
 8102918:	6b93      	ldr	r3, [r2, #56]	; 0x38
 810291a:	f3c3 4306 	ubfx	r3, r3, #16, #7
 810291e:	ee07 3a10 	vmov	s14, r3
 8102922:	eeb8 7ac7 	vcvt.f32.s32	s14, s14
 8102926:	ee37 7a06 	vadd.f32	s14, s14, s12
 810292a:	eec7 6a87 	vdiv.f32	s13, s15, s14
 810292e:	eefc 6ae6 	vcvt.u32.f32	s13, s13
 8102932:	edc0 6a01 	vstr	s13, [r0, #4]
 8102936:	6b93      	ldr	r3, [r2, #56]	; 0x38
 8102938:	f3c3 6306 	ubfx	r3, r3, #24, #7
 810293c:	ee07 3a10 	vmov	s14, r3
 8102940:	eeb8 7ac7 	vcvt.f32.s32	s14, s14
 8102944:	ee37 6a06 	vadd.f32	s12, s14, s12
 8102948:	ee87 7a86 	vdiv.f32	s14, s15, s12
 810294c:	eebc 7ac7 	vcvt.u32.f32	s14, s14
 8102950:	ed80 7a02 	vstr	s14, [r0, #8]
 8102954:	bd70      	pop	{r4, r5, r6, pc}
 8102956:	6b93      	ldr	r3, [r2, #56]	; 0x38
 8102958:	eddf 5a19 	vldr	s11, [pc, #100]	; 81029c0 <HAL_RCCEx_GetPLL2ClockFreq+0x144>
 810295c:	f3c3 0308 	ubfx	r3, r3, #0, #9
 8102960:	ee07 3a10 	vmov	s14, r3
 8102964:	eeb8 7ac7 	vcvt.f32.s32	s14, s14
 8102968:	ee77 7a27 	vadd.f32	s15, s14, s15
 810296c:	ee77 7a86 	vadd.f32	s15, s15, s12
 8102970:	ee85 7aa6 	vdiv.f32	s14, s11, s13
 8102974:	e7be      	b.n	81028f4 <HAL_RCCEx_GetPLL2ClockFreq+0x78>
 8102976:	6b93      	ldr	r3, [r2, #56]	; 0x38
 8102978:	eddf 5a12 	vldr	s11, [pc, #72]	; 81029c4 <HAL_RCCEx_GetPLL2ClockFreq+0x148>
 810297c:	f3c3 0308 	ubfx	r3, r3, #0, #9
 8102980:	ee07 3a10 	vmov	s14, r3
 8102984:	eeb8 7ac7 	vcvt.f32.s32	s14, s14
 8102988:	ee77 7a27 	vadd.f32	s15, s14, s15
 810298c:	ee77 7a86 	vadd.f32	s15, s15, s12
 8102990:	e7ee      	b.n	8102970 <HAL_RCCEx_GetPLL2ClockFreq+0xf4>
 8102992:	6b93      	ldr	r3, [r2, #56]	; 0x38
 8102994:	eddf 5a0c 	vldr	s11, [pc, #48]	; 81029c8 <HAL_RCCEx_GetPLL2ClockFreq+0x14c>
 8102998:	f3c3 0308 	ubfx	r3, r3, #0, #9
 810299c:	ee07 3a10 	vmov	s14, r3
 81029a0:	eeb8 7ac7 	vcvt.f32.s32	s14, s14
 81029a4:	ee77 7a27 	vadd.f32	s15, s14, s15
 81029a8:	ee77 7a86 	vadd.f32	s15, s15, s12
 81029ac:	e7e0      	b.n	8102970 <HAL_RCCEx_GetPLL2ClockFreq+0xf4>
 81029ae:	e9c0 1100 	strd	r1, r1, [r0]
 81029b2:	6081      	str	r1, [r0, #8]
 81029b4:	e7ce      	b.n	8102954 <HAL_RCCEx_GetPLL2ClockFreq+0xd8>
 81029b6:	bf00      	nop
 81029b8:	58024400 	.word	0x58024400
 81029bc:	03d09000 	.word	0x03d09000
 81029c0:	4c742400 	.word	0x4c742400
 81029c4:	4af42400 	.word	0x4af42400
 81029c8:	4a742400 	.word	0x4a742400

081029cc <HAL_RCCEx_GetPLL3ClockFreq>:
 81029cc:	4a4e      	ldr	r2, [pc, #312]	; (8102b08 <HAL_RCCEx_GetPLL3ClockFreq+0x13c>)
 81029ce:	b570      	push	{r4, r5, r6, lr}
 81029d0:	6a94      	ldr	r4, [r2, #40]	; 0x28
 81029d2:	6a96      	ldr	r6, [r2, #40]	; 0x28
 81029d4:	6ad3      	ldr	r3, [r2, #44]	; 0x2c
 81029d6:	6c55      	ldr	r5, [r2, #68]	; 0x44
 81029d8:	f016 7f7c 	tst.w	r6, #66060288	; 0x3f00000
 81029dc:	f3c6 5105 	ubfx	r1, r6, #20, #6
 81029e0:	f000 808d 	beq.w	8102afe <HAL_RCCEx_GetPLL3ClockFreq+0x132>
 81029e4:	ee07 1a90 	vmov	s15, r1
 81029e8:	f3c3 2300 	ubfx	r3, r3, #8, #1
 81029ec:	f3c5 01cc 	ubfx	r1, r5, #3, #13
 81029f0:	434b      	muls	r3, r1
 81029f2:	eef8 6ae7 	vcvt.f32.s32	s13, s15
 81029f6:	f004 0403 	and.w	r4, r4, #3
 81029fa:	ee07 3a90 	vmov	s15, r3
 81029fe:	2c01      	cmp	r4, #1
 8102a00:	eefa 7ae9 	vcvt.f32.s32	s15, s15, #13
 8102a04:	eeb7 6a00 	vmov.f32	s12, #112	; 0x3f800000  1.0
 8102a08:	d06b      	beq.n	8102ae2 <HAL_RCCEx_GetPLL3ClockFreq+0x116>
 8102a0a:	2c02      	cmp	r4, #2
 8102a0c:	d05b      	beq.n	8102ac6 <HAL_RCCEx_GetPLL3ClockFreq+0xfa>
 8102a0e:	2c00      	cmp	r4, #0
 8102a10:	d167      	bne.n	8102ae2 <HAL_RCCEx_GetPLL3ClockFreq+0x116>
 8102a12:	6813      	ldr	r3, [r2, #0]
 8102a14:	069b      	lsls	r3, r3, #26
 8102a16:	d546      	bpl.n	8102aa6 <HAL_RCCEx_GetPLL3ClockFreq+0xda>
 8102a18:	6811      	ldr	r1, [r2, #0]
 8102a1a:	6c13      	ldr	r3, [r2, #64]	; 0x40
 8102a1c:	4a3b      	ldr	r2, [pc, #236]	; (8102b0c <HAL_RCCEx_GetPLL3ClockFreq+0x140>)
 8102a1e:	f3c1 01c1 	ubfx	r1, r1, #3, #2
 8102a22:	40ca      	lsrs	r2, r1
 8102a24:	ee07 2a10 	vmov	s14, r2
 8102a28:	eef8 5ac7 	vcvt.f32.s32	s11, s14
 8102a2c:	f3c3 0308 	ubfx	r3, r3, #0, #9
 8102a30:	ee85 7aa6 	vdiv.f32	s14, s11, s13
 8102a34:	ee06 3a90 	vmov	s13, r3
 8102a38:	eef8 6ae6 	vcvt.f32.s32	s13, s13
 8102a3c:	ee76 7aa7 	vadd.f32	s15, s13, s15
 8102a40:	ee77 7a86 	vadd.f32	s15, s15, s12
 8102a44:	4a30      	ldr	r2, [pc, #192]	; (8102b08 <HAL_RCCEx_GetPLL3ClockFreq+0x13c>)
 8102a46:	6c13      	ldr	r3, [r2, #64]	; 0x40
 8102a48:	f3c3 2346 	ubfx	r3, r3, #9, #7
 8102a4c:	ee67 7a87 	vmul.f32	s15, s15, s14
 8102a50:	ee07 3a10 	vmov	s14, r3
 8102a54:	eeb8 7ac7 	vcvt.f32.s32	s14, s14
 8102a58:	ee37 7a06 	vadd.f32	s14, s14, s12
 8102a5c:	eec7 6a87 	vdiv.f32	s13, s15, s14
 8102a60:	eefc 6ae6 	vcvt.u32.f32	s13, s13
 8102a64:	edc0 6a00 	vstr	s13, [r0]
 8102a68:	6c13      	ldr	r3, [r2, #64]	; 0x40
 8102a6a:	f3c3 4306 	ubfx	r3, r3, #16, #7
 8102a6e:	ee07 3a10 	vmov	s14, r3
 8102a72:	eeb8 7ac7 	vcvt.f32.s32	s14, s14
 8102a76:	ee37 7a06 	vadd.f32	s14, s14, s12
 8102a7a:	eec7 6a87 	vdiv.f32	s13, s15, s14
 8102a7e:	eefc 6ae6 	vcvt.u32.f32	s13, s13
 8102a82:	edc0 6a01 	vstr	s13, [r0, #4]
 8102a86:	6c13      	ldr	r3, [r2, #64]	; 0x40
 8102a88:	f3c3 6306 	ubfx	r3, r3, #24, #7
 8102a8c:	ee07 3a10 	vmov	s14, r3
 8102a90:	eeb8 7ac7 	vcvt.f32.s32	s14, s14
 8102a94:	ee37 6a06 	vadd.f32	s12, s14, s12
 8102a98:	ee87 7a86 	vdiv.f32	s14, s15, s12
 8102a9c:	eebc 7ac7 	vcvt.u32.f32	s14, s14
 8102aa0:	ed80 7a02 	vstr	s14, [r0, #8]
 8102aa4:	bd70      	pop	{r4, r5, r6, pc}
 8102aa6:	6c13      	ldr	r3, [r2, #64]	; 0x40
 8102aa8:	eddf 5a19 	vldr	s11, [pc, #100]	; 8102b10 <HAL_RCCEx_GetPLL3ClockFreq+0x144>
 8102aac:	f3c3 0308 	ubfx	r3, r3, #0, #9
 8102ab0:	ee07 3a10 	vmov	s14, r3
 8102ab4:	eeb8 7ac7 	vcvt.f32.s32	s14, s14
 8102ab8:	ee77 7a27 	vadd.f32	s15, s14, s15
 8102abc:	ee77 7a86 	vadd.f32	s15, s15, s12
 8102ac0:	ee85 7aa6 	vdiv.f32	s14, s11, s13
 8102ac4:	e7be      	b.n	8102a44 <HAL_RCCEx_GetPLL3ClockFreq+0x78>
 8102ac6:	6c13      	ldr	r3, [r2, #64]	; 0x40
 8102ac8:	eddf 5a12 	vldr	s11, [pc, #72]	; 8102b14 <HAL_RCCEx_GetPLL3ClockFreq+0x148>
 8102acc:	f3c3 0308 	ubfx	r3, r3, #0, #9
 8102ad0:	ee07 3a10 	vmov	s14, r3
 8102ad4:	eeb8 7ac7 	vcvt.f32.s32	s14, s14
 8102ad8:	ee77 7a27 	vadd.f32	s15, s14, s15
 8102adc:	ee77 7a86 	vadd.f32	s15, s15, s12
 8102ae0:	e7ee      	b.n	8102ac0 <HAL_RCCEx_GetPLL3ClockFreq+0xf4>
 8102ae2:	6c13      	ldr	r3, [r2, #64]	; 0x40
 8102ae4:	eddf 5a0c 	vldr	s11, [pc, #48]	; 8102b18 <HAL_RCCEx_GetPLL3ClockFreq+0x14c>
 8102ae8:	f3c3 0308 	ubfx	r3, r3, #0, #9
 8102aec:	ee07 3a10 	vmov	s14, r3
 8102af0:	eeb8 7ac7 	vcvt.f32.s32	s14, s14
 8102af4:	ee77 7a27 	vadd.f32	s15, s14, s15
 8102af8:	ee77 7a86 	vadd.f32	s15, s15, s12
 8102afc:	e7e0      	b.n	8102ac0 <HAL_RCCEx_GetPLL3ClockFreq+0xf4>
 8102afe:	e9c0 1100 	strd	r1, r1, [r0]
 8102b02:	6081      	str	r1, [r0, #8]
 8102b04:	e7ce      	b.n	8102aa4 <HAL_RCCEx_GetPLL3ClockFreq+0xd8>
 8102b06:	bf00      	nop
 8102b08:	58024400 	.word	0x58024400
 8102b0c:	03d09000 	.word	0x03d09000
 8102b10:	4c742400 	.word	0x4c742400
 8102b14:	4af42400 	.word	0x4af42400
 8102b18:	4a742400 	.word	0x4a742400

08102b1c <HAL_RCCEx_GetPLL1ClockFreq>:
 8102b1c:	4a4e      	ldr	r2, [pc, #312]	; (8102c58 <HAL_RCCEx_GetPLL1ClockFreq+0x13c>)
 8102b1e:	b570      	push	{r4, r5, r6, lr}
 8102b20:	6a94      	ldr	r4, [r2, #40]	; 0x28
 8102b22:	6a96      	ldr	r6, [r2, #40]	; 0x28
 8102b24:	6ad3      	ldr	r3, [r2, #44]	; 0x2c
 8102b26:	6b55      	ldr	r5, [r2, #52]	; 0x34
 8102b28:	f416 7f7c 	tst.w	r6, #1008	; 0x3f0
 8102b2c:	f3c6 1105 	ubfx	r1, r6, #4, #6
 8102b30:	f000 808d 	beq.w	8102c4e <HAL_RCCEx_GetPLL1ClockFreq+0x132>
 8102b34:	ee07 1a90 	vmov	s15, r1
 8102b38:	f003 0301 	and.w	r3, r3, #1
 8102b3c:	f3c5 01cc 	ubfx	r1, r5, #3, #13
 8102b40:	434b      	muls	r3, r1
 8102b42:	eef8 6ae7 	vcvt.f32.s32	s13, s15
 8102b46:	f004 0403 	and.w	r4, r4, #3
 8102b4a:	ee07 3a90 	vmov	s15, r3
 8102b4e:	2c01      	cmp	r4, #1
 8102b50:	eefa 7ae9 	vcvt.f32.s32	s15, s15, #13
 8102b54:	eeb7 6a00 	vmov.f32	s12, #112	; 0x3f800000  1.0
 8102b58:	d04d      	beq.n	8102bf6 <HAL_RCCEx_GetPLL1ClockFreq+0xda>
 8102b5a:	2c02      	cmp	r4, #2
 8102b5c:	d05b      	beq.n	8102c16 <HAL_RCCEx_GetPLL1ClockFreq+0xfa>
 8102b5e:	2c00      	cmp	r4, #0
 8102b60:	d167      	bne.n	8102c32 <HAL_RCCEx_GetPLL1ClockFreq+0x116>
 8102b62:	6813      	ldr	r3, [r2, #0]
 8102b64:	069b      	lsls	r3, r3, #26
 8102b66:	d564      	bpl.n	8102c32 <HAL_RCCEx_GetPLL1ClockFreq+0x116>
 8102b68:	6811      	ldr	r1, [r2, #0]
 8102b6a:	6b13      	ldr	r3, [r2, #48]	; 0x30
 8102b6c:	4a3b      	ldr	r2, [pc, #236]	; (8102c5c <HAL_RCCEx_GetPLL1ClockFreq+0x140>)
 8102b6e:	f3c1 01c1 	ubfx	r1, r1, #3, #2
 8102b72:	40ca      	lsrs	r2, r1
 8102b74:	ee07 2a10 	vmov	s14, r2
 8102b78:	eef8 5ac7 	vcvt.f32.s32	s11, s14
 8102b7c:	f3c3 0308 	ubfx	r3, r3, #0, #9
 8102b80:	ee85 7aa6 	vdiv.f32	s14, s11, s13
 8102b84:	ee06 3a90 	vmov	s13, r3
 8102b88:	eef8 6ae6 	vcvt.f32.s32	s13, s13
 8102b8c:	ee76 7aa7 	vadd.f32	s15, s13, s15
 8102b90:	ee77 7a86 	vadd.f32	s15, s15, s12
 8102b94:	4a30      	ldr	r2, [pc, #192]	; (8102c58 <HAL_RCCEx_GetPLL1ClockFreq+0x13c>)
 8102b96:	6b13      	ldr	r3, [r2, #48]	; 0x30
 8102b98:	f3c3 2346 	ubfx	r3, r3, #9, #7
 8102b9c:	ee67 7a87 	vmul.f32	s15, s15, s14
 8102ba0:	ee07 3a10 	vmov	s14, r3
 8102ba4:	eeb8 7ac7 	vcvt.f32.s32	s14, s14
 8102ba8:	ee37 7a06 	vadd.f32	s14, s14, s12
 8102bac:	eec7 6a87 	vdiv.f32	s13, s15, s14
 8102bb0:	eefc 6ae6 	vcvt.u32.f32	s13, s13
 8102bb4:	edc0 6a00 	vstr	s13, [r0]
 8102bb8:	6b13      	ldr	r3, [r2, #48]	; 0x30
 8102bba:	f3c3 4306 	ubfx	r3, r3, #16, #7
 8102bbe:	ee07 3a10 	vmov	s14, r3
 8102bc2:	eeb8 7ac7 	vcvt.f32.s32	s14, s14
 8102bc6:	ee37 7a06 	vadd.f32	s14, s14, s12
 8102bca:	eec7 6a87 	vdiv.f32	s13, s15, s14
 8102bce:	eefc 6ae6 	vcvt.u32.f32	s13, s13
 8102bd2:	edc0 6a01 	vstr	s13, [r0, #4]
 8102bd6:	6b13      	ldr	r3, [r2, #48]	; 0x30
 8102bd8:	f3c3 6306 	ubfx	r3, r3, #24, #7
 8102bdc:	ee07 3a10 	vmov	s14, r3
 8102be0:	eeb8 7ac7 	vcvt.f32.s32	s14, s14
 8102be4:	ee37 6a06 	vadd.f32	s12, s14, s12
 8102be8:	ee87 7a86 	vdiv.f32	s14, s15, s12
 8102bec:	eebc 7ac7 	vcvt.u32.f32	s14, s14
 8102bf0:	ed80 7a02 	vstr	s14, [r0, #8]
 8102bf4:	bd70      	pop	{r4, r5, r6, pc}
 8102bf6:	6b13      	ldr	r3, [r2, #48]	; 0x30
 8102bf8:	eddf 5a19 	vldr	s11, [pc, #100]	; 8102c60 <HAL_RCCEx_GetPLL1ClockFreq+0x144>
 8102bfc:	f3c3 0308 	ubfx	r3, r3, #0, #9
 8102c00:	ee07 3a10 	vmov	s14, r3
 8102c04:	eeb8 7ac7 	vcvt.f32.s32	s14, s14
 8102c08:	ee77 7a27 	vadd.f32	s15, s14, s15
 8102c0c:	ee77 7a86 	vadd.f32	s15, s15, s12
 8102c10:	ee85 7aa6 	vdiv.f32	s14, s11, s13
 8102c14:	e7be      	b.n	8102b94 <HAL_RCCEx_GetPLL1ClockFreq+0x78>
 8102c16:	6b13      	ldr	r3, [r2, #48]	; 0x30
 8102c18:	eddf 5a12 	vldr	s11, [pc, #72]	; 8102c64 <HAL_RCCEx_GetPLL1ClockFreq+0x148>
 8102c1c:	f3c3 0308 	ubfx	r3, r3, #0, #9
 8102c20:	ee07 3a10 	vmov	s14, r3
 8102c24:	eeb8 7ac7 	vcvt.f32.s32	s14, s14
 8102c28:	ee77 7a27 	vadd.f32	s15, s14, s15
 8102c2c:	ee77 7a86 	vadd.f32	s15, s15, s12
 8102c30:	e7ee      	b.n	8102c10 <HAL_RCCEx_GetPLL1ClockFreq+0xf4>
 8102c32:	6b13      	ldr	r3, [r2, #48]	; 0x30
 8102c34:	eddf 5a0c 	vldr	s11, [pc, #48]	; 8102c68 <HAL_RCCEx_GetPLL1ClockFreq+0x14c>
 8102c38:	f3c3 0308 	ubfx	r3, r3, #0, #9
 8102c3c:	ee07 3a10 	vmov	s14, r3
 8102c40:	eeb8 7ac7 	vcvt.f32.s32	s14, s14
 8102c44:	ee77 7a27 	vadd.f32	s15, s14, s15
 8102c48:	ee77 7a86 	vadd.f32	s15, s15, s12
 8102c4c:	e7e0      	b.n	8102c10 <HAL_RCCEx_GetPLL1ClockFreq+0xf4>
 8102c4e:	e9c0 1100 	strd	r1, r1, [r0]
 8102c52:	6081      	str	r1, [r0, #8]
 8102c54:	e7ce      	b.n	8102bf4 <HAL_RCCEx_GetPLL1ClockFreq+0xd8>
 8102c56:	bf00      	nop
 8102c58:	58024400 	.word	0x58024400
 8102c5c:	03d09000 	.word	0x03d09000
 8102c60:	4a742400 	.word	0x4a742400
 8102c64:	4af42400 	.word	0x4af42400
 8102c68:	4c742400 	.word	0x4c742400

08102c6c <HAL_RCCEx_GetPeriphCLKFreq>:
 8102c6c:	f5b0 7f80 	cmp.w	r0, #256	; 0x100
 8102c70:	b51f      	push	{r0, r1, r2, r3, r4, lr}
 8102c72:	d131      	bne.n	8102cd8 <HAL_RCCEx_GetPeriphCLKFreq+0x6c>
 8102c74:	4b9e      	ldr	r3, [pc, #632]	; (8102ef0 <HAL_RCCEx_GetPeriphCLKFreq+0x284>)
 8102c76:	6d1a      	ldr	r2, [r3, #80]	; 0x50
 8102c78:	f002 0207 	and.w	r2, r2, #7
 8102c7c:	2a04      	cmp	r2, #4
 8102c7e:	d84b      	bhi.n	8102d18 <HAL_RCCEx_GetPeriphCLKFreq+0xac>
 8102c80:	e8df f012 	tbh	[pc, r2, lsl #1]
 8102c84:	003900cc 	.word	0x003900cc
 8102c88:	01330005 	.word	0x01330005
 8102c8c:	000d      	.short	0x000d
 8102c8e:	6818      	ldr	r0, [r3, #0]
 8102c90:	f010 5000 	ands.w	r0, r0, #536870912	; 0x20000000
 8102c94:	d037      	beq.n	8102d06 <HAL_RCCEx_GetPeriphCLKFreq+0x9a>
 8102c96:	a801      	add	r0, sp, #4
 8102c98:	f7ff fe98 	bl	81029cc <HAL_RCCEx_GetPLL3ClockFreq>
 8102c9c:	e032      	b.n	8102d04 <HAL_RCCEx_GetPeriphCLKFreq+0x98>
 8102c9e:	6cda      	ldr	r2, [r3, #76]	; 0x4c
 8102ca0:	6819      	ldr	r1, [r3, #0]
 8102ca2:	681b      	ldr	r3, [r3, #0]
 8102ca4:	0749      	lsls	r1, r1, #29
 8102ca6:	f002 5240 	and.w	r2, r2, #805306368	; 0x30000000
 8102caa:	d505      	bpl.n	8102cb8 <HAL_RCCEx_GetPeriphCLKFreq+0x4c>
 8102cac:	b922      	cbnz	r2, 8102cb8 <HAL_RCCEx_GetPeriphCLKFreq+0x4c>
 8102cae:	4891      	ldr	r0, [pc, #580]	; (8102ef4 <HAL_RCCEx_GetPeriphCLKFreq+0x288>)
 8102cb0:	f3c3 03c1 	ubfx	r3, r3, #3, #2
 8102cb4:	40d8      	lsrs	r0, r3
 8102cb6:	e026      	b.n	8102d06 <HAL_RCCEx_GetPeriphCLKFreq+0x9a>
 8102cb8:	05d8      	lsls	r0, r3, #23
 8102cba:	d502      	bpl.n	8102cc2 <HAL_RCCEx_GetPeriphCLKFreq+0x56>
 8102cbc:	f1b2 5f80 	cmp.w	r2, #268435456	; 0x10000000
 8102cc0:	d053      	beq.n	8102d6a <HAL_RCCEx_GetPeriphCLKFreq+0xfe>
 8102cc2:	4b8b      	ldr	r3, [pc, #556]	; (8102ef0 <HAL_RCCEx_GetPeriphCLKFreq+0x284>)
 8102cc4:	6818      	ldr	r0, [r3, #0]
 8102cc6:	f410 3000 	ands.w	r0, r0, #131072	; 0x20000
 8102cca:	d01c      	beq.n	8102d06 <HAL_RCCEx_GetPeriphCLKFreq+0x9a>
 8102ccc:	f1b2 5f00 	cmp.w	r2, #536870912	; 0x20000000
 8102cd0:	4889      	ldr	r0, [pc, #548]	; (8102ef8 <HAL_RCCEx_GetPeriphCLKFreq+0x28c>)
 8102cd2:	bf18      	it	ne
 8102cd4:	2000      	movne	r0, #0
 8102cd6:	e016      	b.n	8102d06 <HAL_RCCEx_GetPeriphCLKFreq+0x9a>
 8102cd8:	f5b0 7f00 	cmp.w	r0, #512	; 0x200
 8102cdc:	d127      	bne.n	8102d2e <HAL_RCCEx_GetPeriphCLKFreq+0xc2>
 8102cde:	4b84      	ldr	r3, [pc, #528]	; (8102ef0 <HAL_RCCEx_GetPeriphCLKFreq+0x284>)
 8102ce0:	6d1a      	ldr	r2, [r3, #80]	; 0x50
 8102ce2:	f402 72e0 	and.w	r2, r2, #448	; 0x1c0
 8102ce6:	2a80      	cmp	r2, #128	; 0x80
 8102ce8:	d0d1      	beq.n	8102c8e <HAL_RCCEx_GetPeriphCLKFreq+0x22>
 8102cea:	d80f      	bhi.n	8102d0c <HAL_RCCEx_GetPeriphCLKFreq+0xa0>
 8102cec:	2a00      	cmp	r2, #0
 8102cee:	f000 8095 	beq.w	8102e1c <HAL_RCCEx_GetPeriphCLKFreq+0x1b0>
 8102cf2:	2a40      	cmp	r2, #64	; 0x40
 8102cf4:	d110      	bne.n	8102d18 <HAL_RCCEx_GetPeriphCLKFreq+0xac>
 8102cf6:	6818      	ldr	r0, [r3, #0]
 8102cf8:	f010 6000 	ands.w	r0, r0, #134217728	; 0x8000000
 8102cfc:	d003      	beq.n	8102d06 <HAL_RCCEx_GetPeriphCLKFreq+0x9a>
 8102cfe:	a801      	add	r0, sp, #4
 8102d00:	f7ff fdbc 	bl	810287c <HAL_RCCEx_GetPLL2ClockFreq>
 8102d04:	9801      	ldr	r0, [sp, #4]
 8102d06:	b005      	add	sp, #20
 8102d08:	f85d fb04 	ldr.w	pc, [sp], #4
 8102d0c:	2ac0      	cmp	r2, #192	; 0xc0
 8102d0e:	f000 80ec 	beq.w	8102eea <HAL_RCCEx_GetPeriphCLKFreq+0x27e>
 8102d12:	f5b2 7f80 	cmp.w	r2, #256	; 0x100
 8102d16:	d001      	beq.n	8102d1c <HAL_RCCEx_GetPeriphCLKFreq+0xb0>
 8102d18:	2000      	movs	r0, #0
 8102d1a:	e7f4      	b.n	8102d06 <HAL_RCCEx_GetPeriphCLKFreq+0x9a>
 8102d1c:	6cda      	ldr	r2, [r3, #76]	; 0x4c
 8102d1e:	6819      	ldr	r1, [r3, #0]
 8102d20:	0749      	lsls	r1, r1, #29
 8102d22:	f002 5240 	and.w	r2, r2, #805306368	; 0x30000000
 8102d26:	d519      	bpl.n	8102d5c <HAL_RCCEx_GetPeriphCLKFreq+0xf0>
 8102d28:	b9c2      	cbnz	r2, 8102d5c <HAL_RCCEx_GetPeriphCLKFreq+0xf0>
 8102d2a:	681b      	ldr	r3, [r3, #0]
 8102d2c:	e7bf      	b.n	8102cae <HAL_RCCEx_GetPeriphCLKFreq+0x42>
 8102d2e:	f5b0 6f80 	cmp.w	r0, #1024	; 0x400
 8102d32:	d11c      	bne.n	8102d6e <HAL_RCCEx_GetPeriphCLKFreq+0x102>
 8102d34:	4b6e      	ldr	r3, [pc, #440]	; (8102ef0 <HAL_RCCEx_GetPeriphCLKFreq+0x284>)
 8102d36:	6d9a      	ldr	r2, [r3, #88]	; 0x58
 8102d38:	f402 0260 	and.w	r2, r2, #14680064	; 0xe00000
 8102d3c:	f5b2 0f80 	cmp.w	r2, #4194304	; 0x400000
 8102d40:	d0a5      	beq.n	8102c8e <HAL_RCCEx_GetPeriphCLKFreq+0x22>
 8102d42:	d804      	bhi.n	8102d4e <HAL_RCCEx_GetPeriphCLKFreq+0xe2>
 8102d44:	2a00      	cmp	r2, #0
 8102d46:	d069      	beq.n	8102e1c <HAL_RCCEx_GetPeriphCLKFreq+0x1b0>
 8102d48:	f5b2 1f00 	cmp.w	r2, #2097152	; 0x200000
 8102d4c:	e7d2      	b.n	8102cf4 <HAL_RCCEx_GetPeriphCLKFreq+0x88>
 8102d4e:	f5b2 0fc0 	cmp.w	r2, #6291456	; 0x600000
 8102d52:	f000 80ca 	beq.w	8102eea <HAL_RCCEx_GetPeriphCLKFreq+0x27e>
 8102d56:	f5b2 0f00 	cmp.w	r2, #8388608	; 0x800000
 8102d5a:	e7dc      	b.n	8102d16 <HAL_RCCEx_GetPeriphCLKFreq+0xaa>
 8102d5c:	4b64      	ldr	r3, [pc, #400]	; (8102ef0 <HAL_RCCEx_GetPeriphCLKFreq+0x284>)
 8102d5e:	6819      	ldr	r1, [r3, #0]
 8102d60:	05c9      	lsls	r1, r1, #23
 8102d62:	d5af      	bpl.n	8102cc4 <HAL_RCCEx_GetPeriphCLKFreq+0x58>
 8102d64:	f1b2 5f80 	cmp.w	r2, #268435456	; 0x10000000
 8102d68:	d1ac      	bne.n	8102cc4 <HAL_RCCEx_GetPeriphCLKFreq+0x58>
 8102d6a:	4864      	ldr	r0, [pc, #400]	; (8102efc <HAL_RCCEx_GetPeriphCLKFreq+0x290>)
 8102d6c:	e7cb      	b.n	8102d06 <HAL_RCCEx_GetPeriphCLKFreq+0x9a>
 8102d6e:	f5b0 6f00 	cmp.w	r0, #2048	; 0x800
 8102d72:	d11c      	bne.n	8102dae <HAL_RCCEx_GetPeriphCLKFreq+0x142>
 8102d74:	4b5e      	ldr	r3, [pc, #376]	; (8102ef0 <HAL_RCCEx_GetPeriphCLKFreq+0x284>)
 8102d76:	6d9a      	ldr	r2, [r3, #88]	; 0x58
 8102d78:	f002 62e0 	and.w	r2, r2, #117440512	; 0x7000000
 8102d7c:	f1b2 7f00 	cmp.w	r2, #33554432	; 0x2000000
 8102d80:	d085      	beq.n	8102c8e <HAL_RCCEx_GetPeriphCLKFreq+0x22>
 8102d82:	d804      	bhi.n	8102d8e <HAL_RCCEx_GetPeriphCLKFreq+0x122>
 8102d84:	2a00      	cmp	r2, #0
 8102d86:	d049      	beq.n	8102e1c <HAL_RCCEx_GetPeriphCLKFreq+0x1b0>
 8102d88:	f1b2 7f80 	cmp.w	r2, #16777216	; 0x1000000
 8102d8c:	e7b2      	b.n	8102cf4 <HAL_RCCEx_GetPeriphCLKFreq+0x88>
 8102d8e:	f1b2 7f40 	cmp.w	r2, #50331648	; 0x3000000
 8102d92:	f000 80aa 	beq.w	8102eea <HAL_RCCEx_GetPeriphCLKFreq+0x27e>
 8102d96:	f1b2 6f80 	cmp.w	r2, #67108864	; 0x4000000
 8102d9a:	d1bd      	bne.n	8102d18 <HAL_RCCEx_GetPeriphCLKFreq+0xac>
 8102d9c:	6cda      	ldr	r2, [r3, #76]	; 0x4c
 8102d9e:	6819      	ldr	r1, [r3, #0]
 8102da0:	0748      	lsls	r0, r1, #29
 8102da2:	f002 5240 	and.w	r2, r2, #805306368	; 0x30000000
 8102da6:	d5da      	bpl.n	8102d5e <HAL_RCCEx_GetPeriphCLKFreq+0xf2>
 8102da8:	2a00      	cmp	r2, #0
 8102daa:	d1d8      	bne.n	8102d5e <HAL_RCCEx_GetPeriphCLKFreq+0xf2>
 8102dac:	e7bd      	b.n	8102d2a <HAL_RCCEx_GetPeriphCLKFreq+0xbe>
 8102dae:	f5b0 5f80 	cmp.w	r0, #4096	; 0x1000
 8102db2:	d113      	bne.n	8102ddc <HAL_RCCEx_GetPeriphCLKFreq+0x170>
 8102db4:	4b4e      	ldr	r3, [pc, #312]	; (8102ef0 <HAL_RCCEx_GetPeriphCLKFreq+0x284>)
 8102db6:	6d1a      	ldr	r2, [r3, #80]	; 0x50
 8102db8:	f402 42e0 	and.w	r2, r2, #28672	; 0x7000
 8102dbc:	f5b2 5f00 	cmp.w	r2, #8192	; 0x2000
 8102dc0:	f43f af65 	beq.w	8102c8e <HAL_RCCEx_GetPeriphCLKFreq+0x22>
 8102dc4:	d803      	bhi.n	8102dce <HAL_RCCEx_GetPeriphCLKFreq+0x162>
 8102dc6:	b34a      	cbz	r2, 8102e1c <HAL_RCCEx_GetPeriphCLKFreq+0x1b0>
 8102dc8:	f5b2 5f80 	cmp.w	r2, #4096	; 0x1000
 8102dcc:	e792      	b.n	8102cf4 <HAL_RCCEx_GetPeriphCLKFreq+0x88>
 8102dce:	f5b2 5f40 	cmp.w	r2, #12288	; 0x3000
 8102dd2:	f000 808a 	beq.w	8102eea <HAL_RCCEx_GetPeriphCLKFreq+0x27e>
 8102dd6:	f5b2 4f80 	cmp.w	r2, #16384	; 0x4000
 8102dda:	e7de      	b.n	8102d9a <HAL_RCCEx_GetPeriphCLKFreq+0x12e>
 8102ddc:	f5b0 2f00 	cmp.w	r0, #524288	; 0x80000
 8102de0:	d115      	bne.n	8102e0e <HAL_RCCEx_GetPeriphCLKFreq+0x1a2>
 8102de2:	4b43      	ldr	r3, [pc, #268]	; (8102ef0 <HAL_RCCEx_GetPeriphCLKFreq+0x284>)
 8102de4:	6d9a      	ldr	r2, [r3, #88]	; 0x58
 8102de6:	f402 3240 	and.w	r2, r2, #196608	; 0x30000
 8102dea:	f5b2 3f80 	cmp.w	r2, #65536	; 0x10000
 8102dee:	d005      	beq.n	8102dfc <HAL_RCCEx_GetPeriphCLKFreq+0x190>
 8102df0:	f5b2 3f00 	cmp.w	r2, #131072	; 0x20000
 8102df4:	d0d2      	beq.n	8102d9c <HAL_RCCEx_GetPeriphCLKFreq+0x130>
 8102df6:	2a00      	cmp	r2, #0
 8102df8:	d18e      	bne.n	8102d18 <HAL_RCCEx_GetPeriphCLKFreq+0xac>
 8102dfa:	e77c      	b.n	8102cf6 <HAL_RCCEx_GetPeriphCLKFreq+0x8a>
 8102dfc:	6818      	ldr	r0, [r3, #0]
 8102dfe:	f010 5000 	ands.w	r0, r0, #536870912	; 0x20000000
 8102e02:	d080      	beq.n	8102d06 <HAL_RCCEx_GetPeriphCLKFreq+0x9a>
 8102e04:	a801      	add	r0, sp, #4
 8102e06:	f7ff fde1 	bl	81029cc <HAL_RCCEx_GetPLL3ClockFreq>
 8102e0a:	9803      	ldr	r0, [sp, #12]
 8102e0c:	e77b      	b.n	8102d06 <HAL_RCCEx_GetPeriphCLKFreq+0x9a>
 8102e0e:	f5b0 3f80 	cmp.w	r0, #65536	; 0x10000
 8102e12:	d116      	bne.n	8102e42 <HAL_RCCEx_GetPeriphCLKFreq+0x1d6>
 8102e14:	4b36      	ldr	r3, [pc, #216]	; (8102ef0 <HAL_RCCEx_GetPeriphCLKFreq+0x284>)
 8102e16:	6cda      	ldr	r2, [r3, #76]	; 0x4c
 8102e18:	03d2      	lsls	r2, r2, #15
 8102e1a:	d409      	bmi.n	8102e30 <HAL_RCCEx_GetPeriphCLKFreq+0x1c4>
 8102e1c:	6818      	ldr	r0, [r3, #0]
 8102e1e:	f010 7000 	ands.w	r0, r0, #33554432	; 0x2000000
 8102e22:	f43f af70 	beq.w	8102d06 <HAL_RCCEx_GetPeriphCLKFreq+0x9a>
 8102e26:	a801      	add	r0, sp, #4
 8102e28:	f7ff fe78 	bl	8102b1c <HAL_RCCEx_GetPLL1ClockFreq>
 8102e2c:	9802      	ldr	r0, [sp, #8]
 8102e2e:	e76a      	b.n	8102d06 <HAL_RCCEx_GetPeriphCLKFreq+0x9a>
 8102e30:	6818      	ldr	r0, [r3, #0]
 8102e32:	f010 6000 	ands.w	r0, r0, #134217728	; 0x8000000
 8102e36:	f43f af66 	beq.w	8102d06 <HAL_RCCEx_GetPeriphCLKFreq+0x9a>
 8102e3a:	a801      	add	r0, sp, #4
 8102e3c:	f7ff fd1e 	bl	810287c <HAL_RCCEx_GetPLL2ClockFreq>
 8102e40:	e7e3      	b.n	8102e0a <HAL_RCCEx_GetPeriphCLKFreq+0x19e>
 8102e42:	f5b0 4f80 	cmp.w	r0, #16384	; 0x4000
 8102e46:	d13e      	bne.n	8102ec6 <HAL_RCCEx_GetPeriphCLKFreq+0x25a>
 8102e48:	4b29      	ldr	r3, [pc, #164]	; (8102ef0 <HAL_RCCEx_GetPeriphCLKFreq+0x284>)
 8102e4a:	6d9a      	ldr	r2, [r3, #88]	; 0x58
 8102e4c:	f002 42e0 	and.w	r2, r2, #1879048192	; 0x70000000
 8102e50:	f1b2 5f40 	cmp.w	r2, #805306368	; 0x30000000
 8102e54:	d02a      	beq.n	8102eac <HAL_RCCEx_GetPeriphCLKFreq+0x240>
 8102e56:	d80b      	bhi.n	8102e70 <HAL_RCCEx_GetPeriphCLKFreq+0x204>
 8102e58:	f1b2 5f80 	cmp.w	r2, #268435456	; 0x10000000
 8102e5c:	d014      	beq.n	8102e88 <HAL_RCCEx_GetPeriphCLKFreq+0x21c>
 8102e5e:	f1b2 5f00 	cmp.w	r2, #536870912	; 0x20000000
 8102e62:	d01a      	beq.n	8102e9a <HAL_RCCEx_GetPeriphCLKFreq+0x22e>
 8102e64:	2a00      	cmp	r2, #0
 8102e66:	f47f af57 	bne.w	8102d18 <HAL_RCCEx_GetPeriphCLKFreq+0xac>
 8102e6a:	f7ff fcf5 	bl	8102858 <HAL_RCCEx_GetD3PCLK1Freq>
 8102e6e:	e74a      	b.n	8102d06 <HAL_RCCEx_GetPeriphCLKFreq+0x9a>
 8102e70:	f1b2 4f80 	cmp.w	r2, #1073741824	; 0x40000000
 8102e74:	d020      	beq.n	8102eb8 <HAL_RCCEx_GetPeriphCLKFreq+0x24c>
 8102e76:	f1b2 4fa0 	cmp.w	r2, #1342177280	; 0x50000000
 8102e7a:	f47f af4d 	bne.w	8102d18 <HAL_RCCEx_GetPeriphCLKFreq+0xac>
 8102e7e:	6818      	ldr	r0, [r3, #0]
 8102e80:	4b1d      	ldr	r3, [pc, #116]	; (8102ef8 <HAL_RCCEx_GetPeriphCLKFreq+0x28c>)
 8102e82:	f410 3000 	ands.w	r0, r0, #131072	; 0x20000
 8102e86:	e01b      	b.n	8102ec0 <HAL_RCCEx_GetPeriphCLKFreq+0x254>
 8102e88:	6818      	ldr	r0, [r3, #0]
 8102e8a:	f010 6000 	ands.w	r0, r0, #134217728	; 0x8000000
 8102e8e:	f43f af3a 	beq.w	8102d06 <HAL_RCCEx_GetPeriphCLKFreq+0x9a>
 8102e92:	a801      	add	r0, sp, #4
 8102e94:	f7ff fcf2 	bl	810287c <HAL_RCCEx_GetPLL2ClockFreq>
 8102e98:	e7c8      	b.n	8102e2c <HAL_RCCEx_GetPeriphCLKFreq+0x1c0>
 8102e9a:	6818      	ldr	r0, [r3, #0]
 8102e9c:	f010 5000 	ands.w	r0, r0, #536870912	; 0x20000000
 8102ea0:	f43f af31 	beq.w	8102d06 <HAL_RCCEx_GetPeriphCLKFreq+0x9a>
 8102ea4:	a801      	add	r0, sp, #4
 8102ea6:	f7ff fd91 	bl	81029cc <HAL_RCCEx_GetPLL3ClockFreq>
 8102eaa:	e7bf      	b.n	8102e2c <HAL_RCCEx_GetPeriphCLKFreq+0x1c0>
 8102eac:	6818      	ldr	r0, [r3, #0]
 8102eae:	f010 0004 	ands.w	r0, r0, #4
 8102eb2:	f43f af28 	beq.w	8102d06 <HAL_RCCEx_GetPeriphCLKFreq+0x9a>
 8102eb6:	e738      	b.n	8102d2a <HAL_RCCEx_GetPeriphCLKFreq+0xbe>
 8102eb8:	6818      	ldr	r0, [r3, #0]
 8102eba:	4b10      	ldr	r3, [pc, #64]	; (8102efc <HAL_RCCEx_GetPeriphCLKFreq+0x290>)
 8102ebc:	f410 7080 	ands.w	r0, r0, #256	; 0x100
 8102ec0:	bf18      	it	ne
 8102ec2:	4618      	movne	r0, r3
 8102ec4:	e71f      	b.n	8102d06 <HAL_RCCEx_GetPeriphCLKFreq+0x9a>
 8102ec6:	f5b0 4f00 	cmp.w	r0, #32768	; 0x8000
 8102eca:	f47f af25 	bne.w	8102d18 <HAL_RCCEx_GetPeriphCLKFreq+0xac>
 8102ece:	4b08      	ldr	r3, [pc, #32]	; (8102ef0 <HAL_RCCEx_GetPeriphCLKFreq+0x284>)
 8102ed0:	6d1a      	ldr	r2, [r3, #80]	; 0x50
 8102ed2:	f002 5240 	and.w	r2, r2, #805306368	; 0x30000000
 8102ed6:	f1b2 5f80 	cmp.w	r2, #268435456	; 0x10000000
 8102eda:	d09f      	beq.n	8102e1c <HAL_RCCEx_GetPeriphCLKFreq+0x1b0>
 8102edc:	f1b2 5f00 	cmp.w	r2, #536870912	; 0x20000000
 8102ee0:	d0d2      	beq.n	8102e88 <HAL_RCCEx_GetPeriphCLKFreq+0x21c>
 8102ee2:	2a00      	cmp	r2, #0
 8102ee4:	f47f af18 	bne.w	8102d18 <HAL_RCCEx_GetPeriphCLKFreq+0xac>
 8102ee8:	e7c9      	b.n	8102e7e <HAL_RCCEx_GetPeriphCLKFreq+0x212>
 8102eea:	4805      	ldr	r0, [pc, #20]	; (8102f00 <HAL_RCCEx_GetPeriphCLKFreq+0x294>)
 8102eec:	e70b      	b.n	8102d06 <HAL_RCCEx_GetPeriphCLKFreq+0x9a>
 8102eee:	bf00      	nop
 8102ef0:	58024400 	.word	0x58024400
 8102ef4:	03d09000 	.word	0x03d09000
 8102ef8:	007a1200 	.word	0x007a1200
 8102efc:	003d0900 	.word	0x003d0900
 8102f00:	00bb8000 	.word	0x00bb8000

08102f04 <TIM_OC1_SetConfig>:
 8102f04:	6a03      	ldr	r3, [r0, #32]
 8102f06:	f023 0301 	bic.w	r3, r3, #1
 8102f0a:	6203      	str	r3, [r0, #32]
 8102f0c:	6a03      	ldr	r3, [r0, #32]
 8102f0e:	b570      	push	{r4, r5, r6, lr}
 8102f10:	6844      	ldr	r4, [r0, #4]
 8102f12:	6982      	ldr	r2, [r0, #24]
 8102f14:	680d      	ldr	r5, [r1, #0]
 8102f16:	f422 3280 	bic.w	r2, r2, #65536	; 0x10000
 8102f1a:	f022 0273 	bic.w	r2, r2, #115	; 0x73
 8102f1e:	432a      	orrs	r2, r5
 8102f20:	688d      	ldr	r5, [r1, #8]
 8102f22:	f023 0302 	bic.w	r3, r3, #2
 8102f26:	432b      	orrs	r3, r5
 8102f28:	4d1b      	ldr	r5, [pc, #108]	; (8102f98 <TIM_OC1_SetConfig+0x94>)
 8102f2a:	42a8      	cmp	r0, r5
 8102f2c:	d00f      	beq.n	8102f4e <TIM_OC1_SetConfig+0x4a>
 8102f2e:	f505 6580 	add.w	r5, r5, #1024	; 0x400
 8102f32:	42a8      	cmp	r0, r5
 8102f34:	d00b      	beq.n	8102f4e <TIM_OC1_SetConfig+0x4a>
 8102f36:	f505 5570 	add.w	r5, r5, #15360	; 0x3c00
 8102f3a:	42a8      	cmp	r0, r5
 8102f3c:	d007      	beq.n	8102f4e <TIM_OC1_SetConfig+0x4a>
 8102f3e:	f505 6580 	add.w	r5, r5, #1024	; 0x400
 8102f42:	42a8      	cmp	r0, r5
 8102f44:	d003      	beq.n	8102f4e <TIM_OC1_SetConfig+0x4a>
 8102f46:	f505 6580 	add.w	r5, r5, #1024	; 0x400
 8102f4a:	42a8      	cmp	r0, r5
 8102f4c:	d11e      	bne.n	8102f8c <TIM_OC1_SetConfig+0x88>
 8102f4e:	68cd      	ldr	r5, [r1, #12]
 8102f50:	f023 0308 	bic.w	r3, r3, #8
 8102f54:	432b      	orrs	r3, r5
 8102f56:	4d10      	ldr	r5, [pc, #64]	; (8102f98 <TIM_OC1_SetConfig+0x94>)
 8102f58:	42a8      	cmp	r0, r5
 8102f5a:	f023 0304 	bic.w	r3, r3, #4
 8102f5e:	d00f      	beq.n	8102f80 <TIM_OC1_SetConfig+0x7c>
 8102f60:	f505 6580 	add.w	r5, r5, #1024	; 0x400
 8102f64:	42a8      	cmp	r0, r5
 8102f66:	d00b      	beq.n	8102f80 <TIM_OC1_SetConfig+0x7c>
 8102f68:	f505 5570 	add.w	r5, r5, #15360	; 0x3c00
 8102f6c:	42a8      	cmp	r0, r5
 8102f6e:	d007      	beq.n	8102f80 <TIM_OC1_SetConfig+0x7c>
 8102f70:	f505 6580 	add.w	r5, r5, #1024	; 0x400
 8102f74:	42a8      	cmp	r0, r5
 8102f76:	d003      	beq.n	8102f80 <TIM_OC1_SetConfig+0x7c>
 8102f78:	f505 6580 	add.w	r5, r5, #1024	; 0x400
 8102f7c:	42a8      	cmp	r0, r5
 8102f7e:	d105      	bne.n	8102f8c <TIM_OC1_SetConfig+0x88>
 8102f80:	f424 7540 	bic.w	r5, r4, #768	; 0x300
 8102f84:	e9d1 4605 	ldrd	r4, r6, [r1, #20]
 8102f88:	4334      	orrs	r4, r6
 8102f8a:	432c      	orrs	r4, r5
 8102f8c:	6044      	str	r4, [r0, #4]
 8102f8e:	6182      	str	r2, [r0, #24]
 8102f90:	684a      	ldr	r2, [r1, #4]
 8102f92:	6342      	str	r2, [r0, #52]	; 0x34
 8102f94:	6203      	str	r3, [r0, #32]
 8102f96:	bd70      	pop	{r4, r5, r6, pc}
 8102f98:	40010000 	.word	0x40010000

08102f9c <TIM_OC3_SetConfig>:
 8102f9c:	6a03      	ldr	r3, [r0, #32]
 8102f9e:	f423 7380 	bic.w	r3, r3, #256	; 0x100
 8102fa2:	6203      	str	r3, [r0, #32]
 8102fa4:	6a03      	ldr	r3, [r0, #32]
 8102fa6:	6842      	ldr	r2, [r0, #4]
 8102fa8:	b570      	push	{r4, r5, r6, lr}
 8102faa:	69c4      	ldr	r4, [r0, #28]
 8102fac:	680d      	ldr	r5, [r1, #0]
 8102fae:	f024 0473 	bic.w	r4, r4, #115	; 0x73
 8102fb2:	432c      	orrs	r4, r5
 8102fb4:	688d      	ldr	r5, [r1, #8]
 8102fb6:	f423 7300 	bic.w	r3, r3, #512	; 0x200
 8102fba:	ea43 2305 	orr.w	r3, r3, r5, lsl #8
 8102fbe:	4d16      	ldr	r5, [pc, #88]	; (8103018 <TIM_OC3_SetConfig+0x7c>)
 8102fc0:	42a8      	cmp	r0, r5
 8102fc2:	d003      	beq.n	8102fcc <TIM_OC3_SetConfig+0x30>
 8102fc4:	f505 6580 	add.w	r5, r5, #1024	; 0x400
 8102fc8:	42a8      	cmp	r0, r5
 8102fca:	d10d      	bne.n	8102fe8 <TIM_OC3_SetConfig+0x4c>
 8102fcc:	68cd      	ldr	r5, [r1, #12]
 8102fce:	f423 6300 	bic.w	r3, r3, #2048	; 0x800
 8102fd2:	ea43 2305 	orr.w	r3, r3, r5, lsl #8
 8102fd6:	4d10      	ldr	r5, [pc, #64]	; (8103018 <TIM_OC3_SetConfig+0x7c>)
 8102fd8:	42a8      	cmp	r0, r5
 8102fda:	f423 6380 	bic.w	r3, r3, #1024	; 0x400
 8102fde:	d00e      	beq.n	8102ffe <TIM_OC3_SetConfig+0x62>
 8102fe0:	f505 6580 	add.w	r5, r5, #1024	; 0x400
 8102fe4:	42a8      	cmp	r0, r5
 8102fe6:	d00a      	beq.n	8102ffe <TIM_OC3_SetConfig+0x62>
 8102fe8:	4d0c      	ldr	r5, [pc, #48]	; (810301c <TIM_OC3_SetConfig+0x80>)
 8102fea:	42a8      	cmp	r0, r5
 8102fec:	d007      	beq.n	8102ffe <TIM_OC3_SetConfig+0x62>
 8102fee:	f505 6580 	add.w	r5, r5, #1024	; 0x400
 8102ff2:	42a8      	cmp	r0, r5
 8102ff4:	d003      	beq.n	8102ffe <TIM_OC3_SetConfig+0x62>
 8102ff6:	f505 6580 	add.w	r5, r5, #1024	; 0x400
 8102ffa:	42a8      	cmp	r0, r5
 8102ffc:	d106      	bne.n	810300c <TIM_OC3_SetConfig+0x70>
 8102ffe:	f422 5540 	bic.w	r5, r2, #12288	; 0x3000
 8103002:	e9d1 2605 	ldrd	r2, r6, [r1, #20]
 8103006:	4332      	orrs	r2, r6
 8103008:	ea45 1202 	orr.w	r2, r5, r2, lsl #4
 810300c:	6042      	str	r2, [r0, #4]
 810300e:	684a      	ldr	r2, [r1, #4]
 8103010:	61c4      	str	r4, [r0, #28]
 8103012:	63c2      	str	r2, [r0, #60]	; 0x3c
 8103014:	6203      	str	r3, [r0, #32]
 8103016:	bd70      	pop	{r4, r5, r6, pc}
 8103018:	40010000 	.word	0x40010000
 810301c:	40014000 	.word	0x40014000

08103020 <TIM_OC4_SetConfig>:
 8103020:	6a03      	ldr	r3, [r0, #32]
 8103022:	f423 5380 	bic.w	r3, r3, #4096	; 0x1000
 8103026:	6203      	str	r3, [r0, #32]
 8103028:	6a03      	ldr	r3, [r0, #32]
 810302a:	b530      	push	{r4, r5, lr}
 810302c:	6844      	ldr	r4, [r0, #4]
 810302e:	69c2      	ldr	r2, [r0, #28]
 8103030:	680d      	ldr	r5, [r1, #0]
 8103032:	f422 42e6 	bic.w	r2, r2, #29440	; 0x7300
 8103036:	ea42 2205 	orr.w	r2, r2, r5, lsl #8
 810303a:	688d      	ldr	r5, [r1, #8]
 810303c:	f423 5300 	bic.w	r3, r3, #8192	; 0x2000
 8103040:	ea43 3305 	orr.w	r3, r3, r5, lsl #12
 8103044:	4d0e      	ldr	r5, [pc, #56]	; (8103080 <TIM_OC4_SetConfig+0x60>)
 8103046:	42a8      	cmp	r0, r5
 8103048:	d00f      	beq.n	810306a <TIM_OC4_SetConfig+0x4a>
 810304a:	f505 6580 	add.w	r5, r5, #1024	; 0x400
 810304e:	42a8      	cmp	r0, r5
 8103050:	d00b      	beq.n	810306a <TIM_OC4_SetConfig+0x4a>
 8103052:	f505 5570 	add.w	r5, r5, #15360	; 0x3c00
 8103056:	42a8      	cmp	r0, r5
 8103058:	d007      	beq.n	810306a <TIM_OC4_SetConfig+0x4a>
 810305a:	f505 6580 	add.w	r5, r5, #1024	; 0x400
 810305e:	42a8      	cmp	r0, r5
 8103060:	d003      	beq.n	810306a <TIM_OC4_SetConfig+0x4a>
 8103062:	f505 6580 	add.w	r5, r5, #1024	; 0x400
 8103066:	42a8      	cmp	r0, r5
 8103068:	d104      	bne.n	8103074 <TIM_OC4_SetConfig+0x54>
 810306a:	694d      	ldr	r5, [r1, #20]
 810306c:	f424 4480 	bic.w	r4, r4, #16384	; 0x4000
 8103070:	ea44 1485 	orr.w	r4, r4, r5, lsl #6
 8103074:	6044      	str	r4, [r0, #4]
 8103076:	61c2      	str	r2, [r0, #28]
 8103078:	684a      	ldr	r2, [r1, #4]
 810307a:	6402      	str	r2, [r0, #64]	; 0x40
 810307c:	6203      	str	r3, [r0, #32]
 810307e:	bd30      	pop	{r4, r5, pc}
 8103080:	40010000 	.word	0x40010000

08103084 <TIM_OC5_SetConfig>:
 8103084:	6a03      	ldr	r3, [r0, #32]
 8103086:	f423 3380 	bic.w	r3, r3, #65536	; 0x10000
 810308a:	6203      	str	r3, [r0, #32]
 810308c:	6a03      	ldr	r3, [r0, #32]
 810308e:	b530      	push	{r4, r5, lr}
 8103090:	6844      	ldr	r4, [r0, #4]
 8103092:	6d42      	ldr	r2, [r0, #84]	; 0x54
 8103094:	680d      	ldr	r5, [r1, #0]
 8103096:	f022 0270 	bic.w	r2, r2, #112	; 0x70
 810309a:	432a      	orrs	r2, r5
 810309c:	688d      	ldr	r5, [r1, #8]
 810309e:	f423 3300 	bic.w	r3, r3, #131072	; 0x20000
 81030a2:	ea43 4305 	orr.w	r3, r3, r5, lsl #16
 81030a6:	4d0f      	ldr	r5, [pc, #60]	; (81030e4 <TIM_OC5_SetConfig+0x60>)
 81030a8:	42a8      	cmp	r0, r5
 81030aa:	d00f      	beq.n	81030cc <TIM_OC5_SetConfig+0x48>
 81030ac:	f505 6580 	add.w	r5, r5, #1024	; 0x400
 81030b0:	42a8      	cmp	r0, r5
 81030b2:	d00b      	beq.n	81030cc <TIM_OC5_SetConfig+0x48>
 81030b4:	f505 5570 	add.w	r5, r5, #15360	; 0x3c00
 81030b8:	42a8      	cmp	r0, r5
 81030ba:	d007      	beq.n	81030cc <TIM_OC5_SetConfig+0x48>
 81030bc:	f505 6580 	add.w	r5, r5, #1024	; 0x400
 81030c0:	42a8      	cmp	r0, r5
 81030c2:	d003      	beq.n	81030cc <TIM_OC5_SetConfig+0x48>
 81030c4:	f505 6580 	add.w	r5, r5, #1024	; 0x400
 81030c8:	42a8      	cmp	r0, r5
 81030ca:	d104      	bne.n	81030d6 <TIM_OC5_SetConfig+0x52>
 81030cc:	694d      	ldr	r5, [r1, #20]
 81030ce:	f424 3480 	bic.w	r4, r4, #65536	; 0x10000
 81030d2:	ea44 2405 	orr.w	r4, r4, r5, lsl #8
 81030d6:	6044      	str	r4, [r0, #4]
 81030d8:	6542      	str	r2, [r0, #84]	; 0x54
 81030da:	684a      	ldr	r2, [r1, #4]
 81030dc:	6582      	str	r2, [r0, #88]	; 0x58
 81030de:	6203      	str	r3, [r0, #32]
 81030e0:	bd30      	pop	{r4, r5, pc}
 81030e2:	bf00      	nop
 81030e4:	40010000 	.word	0x40010000

081030e8 <TIM_OC6_SetConfig>:
 81030e8:	6a03      	ldr	r3, [r0, #32]
 81030ea:	f423 1380 	bic.w	r3, r3, #1048576	; 0x100000
 81030ee:	6203      	str	r3, [r0, #32]
 81030f0:	6a03      	ldr	r3, [r0, #32]
 81030f2:	b530      	push	{r4, r5, lr}
 81030f4:	6844      	ldr	r4, [r0, #4]
 81030f6:	6d42      	ldr	r2, [r0, #84]	; 0x54
 81030f8:	680d      	ldr	r5, [r1, #0]
 81030fa:	f422 42e0 	bic.w	r2, r2, #28672	; 0x7000
 81030fe:	ea42 2205 	orr.w	r2, r2, r5, lsl #8
 8103102:	688d      	ldr	r5, [r1, #8]
 8103104:	f423 1300 	bic.w	r3, r3, #2097152	; 0x200000
 8103108:	ea43 5305 	orr.w	r3, r3, r5, lsl #20
 810310c:	4d0e      	ldr	r5, [pc, #56]	; (8103148 <TIM_OC6_SetConfig+0x60>)
 810310e:	42a8      	cmp	r0, r5
 8103110:	d00f      	beq.n	8103132 <TIM_OC6_SetConfig+0x4a>
 8103112:	f505 6580 	add.w	r5, r5, #1024	; 0x400
 8103116:	42a8      	cmp	r0, r5
 8103118:	d00b      	beq.n	8103132 <TIM_OC6_SetConfig+0x4a>
 810311a:	f505 5570 	add.w	r5, r5, #15360	; 0x3c00
 810311e:	42a8      	cmp	r0, r5
 8103120:	d007      	beq.n	8103132 <TIM_OC6_SetConfig+0x4a>
 8103122:	f505 6580 	add.w	r5, r5, #1024	; 0x400
 8103126:	42a8      	cmp	r0, r5
 8103128:	d003      	beq.n	8103132 <TIM_OC6_SetConfig+0x4a>
 810312a:	f505 6580 	add.w	r5, r5, #1024	; 0x400
 810312e:	42a8      	cmp	r0, r5
 8103130:	d104      	bne.n	810313c <TIM_OC6_SetConfig+0x54>
 8103132:	694d      	ldr	r5, [r1, #20]
 8103134:	f424 3400 	bic.w	r4, r4, #131072	; 0x20000
 8103138:	ea44 2485 	orr.w	r4, r4, r5, lsl #10
 810313c:	6044      	str	r4, [r0, #4]
 810313e:	6542      	str	r2, [r0, #84]	; 0x54
 8103140:	684a      	ldr	r2, [r1, #4]
 8103142:	65c2      	str	r2, [r0, #92]	; 0x5c
 8103144:	6203      	str	r3, [r0, #32]
 8103146:	bd30      	pop	{r4, r5, pc}
 8103148:	40010000 	.word	0x40010000

0810314c <HAL_TIM_Base_Start>:
 810314c:	f890 303d 	ldrb.w	r3, [r0, #61]	; 0x3d
 8103150:	2b01      	cmp	r3, #1
 8103152:	d12b      	bne.n	81031ac <HAL_TIM_Base_Start+0x60>
 8103154:	2302      	movs	r3, #2
 8103156:	4a16      	ldr	r2, [pc, #88]	; (81031b0 <HAL_TIM_Base_Start+0x64>)
 8103158:	f880 303d 	strb.w	r3, [r0, #61]	; 0x3d
 810315c:	6803      	ldr	r3, [r0, #0]
 810315e:	4293      	cmp	r3, r2
 8103160:	d016      	beq.n	8103190 <HAL_TIM_Base_Start+0x44>
 8103162:	f1b3 4f80 	cmp.w	r3, #1073741824	; 0x40000000
 8103166:	d013      	beq.n	8103190 <HAL_TIM_Base_Start+0x44>
 8103168:	f5a2 427c 	sub.w	r2, r2, #64512	; 0xfc00
 810316c:	4293      	cmp	r3, r2
 810316e:	d00f      	beq.n	8103190 <HAL_TIM_Base_Start+0x44>
 8103170:	f502 6280 	add.w	r2, r2, #1024	; 0x400
 8103174:	4293      	cmp	r3, r2
 8103176:	d00b      	beq.n	8103190 <HAL_TIM_Base_Start+0x44>
 8103178:	f502 6280 	add.w	r2, r2, #1024	; 0x400
 810317c:	4293      	cmp	r3, r2
 810317e:	d007      	beq.n	8103190 <HAL_TIM_Base_Start+0x44>
 8103180:	f502 4278 	add.w	r2, r2, #63488	; 0xf800
 8103184:	4293      	cmp	r3, r2
 8103186:	d003      	beq.n	8103190 <HAL_TIM_Base_Start+0x44>
 8103188:	f5a2 426c 	sub.w	r2, r2, #60416	; 0xec00
 810318c:	4293      	cmp	r3, r2
 810318e:	d107      	bne.n	81031a0 <HAL_TIM_Base_Start+0x54>
 8103190:	6899      	ldr	r1, [r3, #8]
 8103192:	4a08      	ldr	r2, [pc, #32]	; (81031b4 <HAL_TIM_Base_Start+0x68>)
 8103194:	400a      	ands	r2, r1
 8103196:	2a06      	cmp	r2, #6
 8103198:	d006      	beq.n	81031a8 <HAL_TIM_Base_Start+0x5c>
 810319a:	f5b2 3f80 	cmp.w	r2, #65536	; 0x10000
 810319e:	d003      	beq.n	81031a8 <HAL_TIM_Base_Start+0x5c>
 81031a0:	681a      	ldr	r2, [r3, #0]
 81031a2:	f042 0201 	orr.w	r2, r2, #1
 81031a6:	601a      	str	r2, [r3, #0]
 81031a8:	2000      	movs	r0, #0
 81031aa:	4770      	bx	lr
 81031ac:	2001      	movs	r0, #1
 81031ae:	4770      	bx	lr
 81031b0:	40010000 	.word	0x40010000
 81031b4:	00010007 	.word	0x00010007

081031b8 <HAL_TIM_Base_Start_IT>:
 81031b8:	f890 303d 	ldrb.w	r3, [r0, #61]	; 0x3d
 81031bc:	2b01      	cmp	r3, #1
 81031be:	d12f      	bne.n	8103220 <HAL_TIM_Base_Start_IT+0x68>
 81031c0:	2302      	movs	r3, #2
 81031c2:	f880 303d 	strb.w	r3, [r0, #61]	; 0x3d
 81031c6:	6803      	ldr	r3, [r0, #0]
 81031c8:	68da      	ldr	r2, [r3, #12]
 81031ca:	f042 0201 	orr.w	r2, r2, #1
 81031ce:	60da      	str	r2, [r3, #12]
 81031d0:	4a14      	ldr	r2, [pc, #80]	; (8103224 <HAL_TIM_Base_Start_IT+0x6c>)
 81031d2:	4293      	cmp	r3, r2
 81031d4:	d016      	beq.n	8103204 <HAL_TIM_Base_Start_IT+0x4c>
 81031d6:	f1b3 4f80 	cmp.w	r3, #1073741824	; 0x40000000
 81031da:	d013      	beq.n	8103204 <HAL_TIM_Base_Start_IT+0x4c>
 81031dc:	f5a2 427c 	sub.w	r2, r2, #64512	; 0xfc00
 81031e0:	4293      	cmp	r3, r2
 81031e2:	d00f      	beq.n	8103204 <HAL_TIM_Base_Start_IT+0x4c>
 81031e4:	f502 6280 	add.w	r2, r2, #1024	; 0x400
 81031e8:	4293      	cmp	r3, r2
 81031ea:	d00b      	beq.n	8103204 <HAL_TIM_Base_Start_IT+0x4c>
 81031ec:	f502 6280 	add.w	r2, r2, #1024	; 0x400
 81031f0:	4293      	cmp	r3, r2
 81031f2:	d007      	beq.n	8103204 <HAL_TIM_Base_Start_IT+0x4c>
 81031f4:	f502 4278 	add.w	r2, r2, #63488	; 0xf800
 81031f8:	4293      	cmp	r3, r2
 81031fa:	d003      	beq.n	8103204 <HAL_TIM_Base_Start_IT+0x4c>
 81031fc:	f5a2 426c 	sub.w	r2, r2, #60416	; 0xec00
 8103200:	4293      	cmp	r3, r2
 8103202:	d107      	bne.n	8103214 <HAL_TIM_Base_Start_IT+0x5c>
 8103204:	6899      	ldr	r1, [r3, #8]
 8103206:	4a08      	ldr	r2, [pc, #32]	; (8103228 <HAL_TIM_Base_Start_IT+0x70>)
 8103208:	400a      	ands	r2, r1
 810320a:	2a06      	cmp	r2, #6
 810320c:	d006      	beq.n	810321c <HAL_TIM_Base_Start_IT+0x64>
 810320e:	f5b2 3f80 	cmp.w	r2, #65536	; 0x10000
 8103212:	d003      	beq.n	810321c <HAL_TIM_Base_Start_IT+0x64>
 8103214:	681a      	ldr	r2, [r3, #0]
 8103216:	f042 0201 	orr.w	r2, r2, #1
 810321a:	601a      	str	r2, [r3, #0]
 810321c:	2000      	movs	r0, #0
 810321e:	4770      	bx	lr
 8103220:	2001      	movs	r0, #1
 8103222:	4770      	bx	lr
 8103224:	40010000 	.word	0x40010000
 8103228:	00010007 	.word	0x00010007

0810322c <HAL_TIM_PWM_MspInit>:
 810322c:	4770      	bx	lr

0810322e <HAL_TIM_OC_DelayElapsedCallback>:
 810322e:	4770      	bx	lr

08103230 <HAL_TIM_IC_CaptureCallback>:
 8103230:	4770      	bx	lr

08103232 <HAL_TIM_PWM_PulseFinishedCallback>:
 8103232:	4770      	bx	lr

08103234 <HAL_TIM_TriggerCallback>:
 8103234:	4770      	bx	lr

08103236 <HAL_TIM_IRQHandler>:
 8103236:	6803      	ldr	r3, [r0, #0]
 8103238:	691a      	ldr	r2, [r3, #16]
 810323a:	0791      	lsls	r1, r2, #30
 810323c:	b510      	push	{r4, lr}
 810323e:	4604      	mov	r4, r0
 8103240:	d50f      	bpl.n	8103262 <HAL_TIM_IRQHandler+0x2c>
 8103242:	68da      	ldr	r2, [r3, #12]
 8103244:	0792      	lsls	r2, r2, #30
 8103246:	d50c      	bpl.n	8103262 <HAL_TIM_IRQHandler+0x2c>
 8103248:	f06f 0202 	mvn.w	r2, #2
 810324c:	611a      	str	r2, [r3, #16]
 810324e:	2201      	movs	r2, #1
 8103250:	7702      	strb	r2, [r0, #28]
 8103252:	699b      	ldr	r3, [r3, #24]
 8103254:	0799      	lsls	r1, r3, #30
 8103256:	f000 8085 	beq.w	8103364 <HAL_TIM_IRQHandler+0x12e>
 810325a:	f7ff ffe9 	bl	8103230 <HAL_TIM_IC_CaptureCallback>
 810325e:	2300      	movs	r3, #0
 8103260:	7723      	strb	r3, [r4, #28]
 8103262:	6823      	ldr	r3, [r4, #0]
 8103264:	691a      	ldr	r2, [r3, #16]
 8103266:	0752      	lsls	r2, r2, #29
 8103268:	d510      	bpl.n	810328c <HAL_TIM_IRQHandler+0x56>
 810326a:	68da      	ldr	r2, [r3, #12]
 810326c:	0750      	lsls	r0, r2, #29
 810326e:	d50d      	bpl.n	810328c <HAL_TIM_IRQHandler+0x56>
 8103270:	f06f 0204 	mvn.w	r2, #4
 8103274:	611a      	str	r2, [r3, #16]
 8103276:	2202      	movs	r2, #2
 8103278:	7722      	strb	r2, [r4, #28]
 810327a:	699b      	ldr	r3, [r3, #24]
 810327c:	f413 7f40 	tst.w	r3, #768	; 0x300
 8103280:	4620      	mov	r0, r4
 8103282:	d075      	beq.n	8103370 <HAL_TIM_IRQHandler+0x13a>
 8103284:	f7ff ffd4 	bl	8103230 <HAL_TIM_IC_CaptureCallback>
 8103288:	2300      	movs	r3, #0
 810328a:	7723      	strb	r3, [r4, #28]
 810328c:	6823      	ldr	r3, [r4, #0]
 810328e:	691a      	ldr	r2, [r3, #16]
 8103290:	0711      	lsls	r1, r2, #28
 8103292:	d50f      	bpl.n	81032b4 <HAL_TIM_IRQHandler+0x7e>
 8103294:	68da      	ldr	r2, [r3, #12]
 8103296:	0712      	lsls	r2, r2, #28
 8103298:	d50c      	bpl.n	81032b4 <HAL_TIM_IRQHandler+0x7e>
 810329a:	f06f 0208 	mvn.w	r2, #8
 810329e:	611a      	str	r2, [r3, #16]
 81032a0:	2204      	movs	r2, #4
 81032a2:	7722      	strb	r2, [r4, #28]
 81032a4:	69db      	ldr	r3, [r3, #28]
 81032a6:	079b      	lsls	r3, r3, #30
 81032a8:	4620      	mov	r0, r4
 81032aa:	d067      	beq.n	810337c <HAL_TIM_IRQHandler+0x146>
 81032ac:	f7ff ffc0 	bl	8103230 <HAL_TIM_IC_CaptureCallback>
 81032b0:	2300      	movs	r3, #0
 81032b2:	7723      	strb	r3, [r4, #28]
 81032b4:	6823      	ldr	r3, [r4, #0]
 81032b6:	691a      	ldr	r2, [r3, #16]
 81032b8:	06d0      	lsls	r0, r2, #27
 81032ba:	d510      	bpl.n	81032de <HAL_TIM_IRQHandler+0xa8>
 81032bc:	68da      	ldr	r2, [r3, #12]
 81032be:	06d1      	lsls	r1, r2, #27
 81032c0:	d50d      	bpl.n	81032de <HAL_TIM_IRQHandler+0xa8>
 81032c2:	f06f 0210 	mvn.w	r2, #16
 81032c6:	611a      	str	r2, [r3, #16]
 81032c8:	2208      	movs	r2, #8
 81032ca:	7722      	strb	r2, [r4, #28]
 81032cc:	69db      	ldr	r3, [r3, #28]
 81032ce:	f413 7f40 	tst.w	r3, #768	; 0x300
 81032d2:	4620      	mov	r0, r4
 81032d4:	d058      	beq.n	8103388 <HAL_TIM_IRQHandler+0x152>
 81032d6:	f7ff ffab 	bl	8103230 <HAL_TIM_IC_CaptureCallback>
 81032da:	2300      	movs	r3, #0
 81032dc:	7723      	strb	r3, [r4, #28]
 81032de:	6823      	ldr	r3, [r4, #0]
 81032e0:	691a      	ldr	r2, [r3, #16]
 81032e2:	07d2      	lsls	r2, r2, #31
 81032e4:	d508      	bpl.n	81032f8 <HAL_TIM_IRQHandler+0xc2>
 81032e6:	68da      	ldr	r2, [r3, #12]
 81032e8:	07d0      	lsls	r0, r2, #31
 81032ea:	d505      	bpl.n	81032f8 <HAL_TIM_IRQHandler+0xc2>
 81032ec:	f06f 0201 	mvn.w	r2, #1
 81032f0:	611a      	str	r2, [r3, #16]
 81032f2:	4620      	mov	r0, r4
 81032f4:	f7fd f932 	bl	810055c <HAL_TIM_PeriodElapsedCallback>
 81032f8:	6823      	ldr	r3, [r4, #0]
 81032fa:	691a      	ldr	r2, [r3, #16]
 81032fc:	0611      	lsls	r1, r2, #24
 81032fe:	d508      	bpl.n	8103312 <HAL_TIM_IRQHandler+0xdc>
 8103300:	68da      	ldr	r2, [r3, #12]
 8103302:	0612      	lsls	r2, r2, #24
 8103304:	d505      	bpl.n	8103312 <HAL_TIM_IRQHandler+0xdc>
 8103306:	f06f 0280 	mvn.w	r2, #128	; 0x80
 810330a:	611a      	str	r2, [r3, #16]
 810330c:	4620      	mov	r0, r4
 810330e:	f000 fbae 	bl	8103a6e <HAL_TIMEx_BreakCallback>
 8103312:	6823      	ldr	r3, [r4, #0]
 8103314:	691a      	ldr	r2, [r3, #16]
 8103316:	05d0      	lsls	r0, r2, #23
 8103318:	d508      	bpl.n	810332c <HAL_TIM_IRQHandler+0xf6>
 810331a:	68da      	ldr	r2, [r3, #12]
 810331c:	0611      	lsls	r1, r2, #24
 810331e:	d505      	bpl.n	810332c <HAL_TIM_IRQHandler+0xf6>
 8103320:	f46f 7280 	mvn.w	r2, #256	; 0x100
 8103324:	611a      	str	r2, [r3, #16]
 8103326:	4620      	mov	r0, r4
 8103328:	f000 fba2 	bl	8103a70 <HAL_TIMEx_Break2Callback>
 810332c:	6823      	ldr	r3, [r4, #0]
 810332e:	691a      	ldr	r2, [r3, #16]
 8103330:	0652      	lsls	r2, r2, #25
 8103332:	d508      	bpl.n	8103346 <HAL_TIM_IRQHandler+0x110>
 8103334:	68da      	ldr	r2, [r3, #12]
 8103336:	0650      	lsls	r0, r2, #25
 8103338:	d505      	bpl.n	8103346 <HAL_TIM_IRQHandler+0x110>
 810333a:	f06f 0240 	mvn.w	r2, #64	; 0x40
 810333e:	611a      	str	r2, [r3, #16]
 8103340:	4620      	mov	r0, r4
 8103342:	f7ff ff77 	bl	8103234 <HAL_TIM_TriggerCallback>
 8103346:	6823      	ldr	r3, [r4, #0]
 8103348:	691a      	ldr	r2, [r3, #16]
 810334a:	0691      	lsls	r1, r2, #26
 810334c:	d522      	bpl.n	8103394 <HAL_TIM_IRQHandler+0x15e>
 810334e:	68da      	ldr	r2, [r3, #12]
 8103350:	0692      	lsls	r2, r2, #26
 8103352:	d51f      	bpl.n	8103394 <HAL_TIM_IRQHandler+0x15e>
 8103354:	f06f 0220 	mvn.w	r2, #32
 8103358:	4620      	mov	r0, r4
 810335a:	611a      	str	r2, [r3, #16]
 810335c:	e8bd 4010 	ldmia.w	sp!, {r4, lr}
 8103360:	f000 bb84 	b.w	8103a6c <HAL_TIMEx_CommutCallback>
 8103364:	f7ff ff63 	bl	810322e <HAL_TIM_OC_DelayElapsedCallback>
 8103368:	4620      	mov	r0, r4
 810336a:	f7ff ff62 	bl	8103232 <HAL_TIM_PWM_PulseFinishedCallback>
 810336e:	e776      	b.n	810325e <HAL_TIM_IRQHandler+0x28>
 8103370:	f7ff ff5d 	bl	810322e <HAL_TIM_OC_DelayElapsedCallback>
 8103374:	4620      	mov	r0, r4
 8103376:	f7ff ff5c 	bl	8103232 <HAL_TIM_PWM_PulseFinishedCallback>
 810337a:	e785      	b.n	8103288 <HAL_TIM_IRQHandler+0x52>
 810337c:	f7ff ff57 	bl	810322e <HAL_TIM_OC_DelayElapsedCallback>
 8103380:	4620      	mov	r0, r4
 8103382:	f7ff ff56 	bl	8103232 <HAL_TIM_PWM_PulseFinishedCallback>
 8103386:	e793      	b.n	81032b0 <HAL_TIM_IRQHandler+0x7a>
 8103388:	f7ff ff51 	bl	810322e <HAL_TIM_OC_DelayElapsedCallback>
 810338c:	4620      	mov	r0, r4
 810338e:	f7ff ff50 	bl	8103232 <HAL_TIM_PWM_PulseFinishedCallback>
 8103392:	e7a2      	b.n	81032da <HAL_TIM_IRQHandler+0xa4>
 8103394:	bd10      	pop	{r4, pc}
	...

08103398 <TIM_Base_SetConfig>:
 8103398:	4a30      	ldr	r2, [pc, #192]	; (810345c <TIM_Base_SetConfig+0xc4>)
 810339a:	6803      	ldr	r3, [r0, #0]
 810339c:	4290      	cmp	r0, r2
 810339e:	d012      	beq.n	81033c6 <TIM_Base_SetConfig+0x2e>
 81033a0:	f1b0 4f80 	cmp.w	r0, #1073741824	; 0x40000000
 81033a4:	d00f      	beq.n	81033c6 <TIM_Base_SetConfig+0x2e>
 81033a6:	f5a2 427c 	sub.w	r2, r2, #64512	; 0xfc00
 81033aa:	4290      	cmp	r0, r2
 81033ac:	d00b      	beq.n	81033c6 <TIM_Base_SetConfig+0x2e>
 81033ae:	f502 6280 	add.w	r2, r2, #1024	; 0x400
 81033b2:	4290      	cmp	r0, r2
 81033b4:	d007      	beq.n	81033c6 <TIM_Base_SetConfig+0x2e>
 81033b6:	f502 6280 	add.w	r2, r2, #1024	; 0x400
 81033ba:	4290      	cmp	r0, r2
 81033bc:	d003      	beq.n	81033c6 <TIM_Base_SetConfig+0x2e>
 81033be:	f502 4278 	add.w	r2, r2, #63488	; 0xf800
 81033c2:	4290      	cmp	r0, r2
 81033c4:	d119      	bne.n	81033fa <TIM_Base_SetConfig+0x62>
 81033c6:	684a      	ldr	r2, [r1, #4]
 81033c8:	f023 0370 	bic.w	r3, r3, #112	; 0x70
 81033cc:	4313      	orrs	r3, r2
 81033ce:	4a23      	ldr	r2, [pc, #140]	; (810345c <TIM_Base_SetConfig+0xc4>)
 81033d0:	4290      	cmp	r0, r2
 81033d2:	d01d      	beq.n	8103410 <TIM_Base_SetConfig+0x78>
 81033d4:	f1b0 4f80 	cmp.w	r0, #1073741824	; 0x40000000
 81033d8:	d01a      	beq.n	8103410 <TIM_Base_SetConfig+0x78>
 81033da:	f5a2 427c 	sub.w	r2, r2, #64512	; 0xfc00
 81033de:	4290      	cmp	r0, r2
 81033e0:	d016      	beq.n	8103410 <TIM_Base_SetConfig+0x78>
 81033e2:	f502 6280 	add.w	r2, r2, #1024	; 0x400
 81033e6:	4290      	cmp	r0, r2
 81033e8:	d012      	beq.n	8103410 <TIM_Base_SetConfig+0x78>
 81033ea:	f502 6280 	add.w	r2, r2, #1024	; 0x400
 81033ee:	4290      	cmp	r0, r2
 81033f0:	d00e      	beq.n	8103410 <TIM_Base_SetConfig+0x78>
 81033f2:	f502 4278 	add.w	r2, r2, #63488	; 0xf800
 81033f6:	4290      	cmp	r0, r2
 81033f8:	d00a      	beq.n	8103410 <TIM_Base_SetConfig+0x78>
 81033fa:	4a19      	ldr	r2, [pc, #100]	; (8103460 <TIM_Base_SetConfig+0xc8>)
 81033fc:	4290      	cmp	r0, r2
 81033fe:	d007      	beq.n	8103410 <TIM_Base_SetConfig+0x78>
 8103400:	f502 6280 	add.w	r2, r2, #1024	; 0x400
 8103404:	4290      	cmp	r0, r2
 8103406:	d003      	beq.n	8103410 <TIM_Base_SetConfig+0x78>
 8103408:	f502 6280 	add.w	r2, r2, #1024	; 0x400
 810340c:	4290      	cmp	r0, r2
 810340e:	d103      	bne.n	8103418 <TIM_Base_SetConfig+0x80>
 8103410:	68ca      	ldr	r2, [r1, #12]
 8103412:	f423 7340 	bic.w	r3, r3, #768	; 0x300
 8103416:	4313      	orrs	r3, r2
 8103418:	694a      	ldr	r2, [r1, #20]
 810341a:	f023 0380 	bic.w	r3, r3, #128	; 0x80
 810341e:	4313      	orrs	r3, r2
 8103420:	6003      	str	r3, [r0, #0]
 8103422:	688b      	ldr	r3, [r1, #8]
 8103424:	62c3      	str	r3, [r0, #44]	; 0x2c
 8103426:	680b      	ldr	r3, [r1, #0]
 8103428:	6283      	str	r3, [r0, #40]	; 0x28
 810342a:	4b0c      	ldr	r3, [pc, #48]	; (810345c <TIM_Base_SetConfig+0xc4>)
 810342c:	4298      	cmp	r0, r3
 810342e:	d00f      	beq.n	8103450 <TIM_Base_SetConfig+0xb8>
 8103430:	f503 6380 	add.w	r3, r3, #1024	; 0x400
 8103434:	4298      	cmp	r0, r3
 8103436:	d00b      	beq.n	8103450 <TIM_Base_SetConfig+0xb8>
 8103438:	f503 5370 	add.w	r3, r3, #15360	; 0x3c00
 810343c:	4298      	cmp	r0, r3
 810343e:	d007      	beq.n	8103450 <TIM_Base_SetConfig+0xb8>
 8103440:	f503 6380 	add.w	r3, r3, #1024	; 0x400
 8103444:	4298      	cmp	r0, r3
 8103446:	d003      	beq.n	8103450 <TIM_Base_SetConfig+0xb8>
 8103448:	f503 6380 	add.w	r3, r3, #1024	; 0x400
 810344c:	4298      	cmp	r0, r3
 810344e:	d101      	bne.n	8103454 <TIM_Base_SetConfig+0xbc>
 8103450:	690b      	ldr	r3, [r1, #16]
 8103452:	6303      	str	r3, [r0, #48]	; 0x30
 8103454:	2301      	movs	r3, #1
 8103456:	6143      	str	r3, [r0, #20]
 8103458:	4770      	bx	lr
 810345a:	bf00      	nop
 810345c:	40010000 	.word	0x40010000
 8103460:	40014000 	.word	0x40014000

08103464 <HAL_TIM_Base_Init>:
 8103464:	b510      	push	{r4, lr}
 8103466:	4604      	mov	r4, r0
 8103468:	b350      	cbz	r0, 81034c0 <HAL_TIM_Base_Init+0x5c>
 810346a:	f890 303d 	ldrb.w	r3, [r0, #61]	; 0x3d
 810346e:	f003 02ff 	and.w	r2, r3, #255	; 0xff
 8103472:	b91b      	cbnz	r3, 810347c <HAL_TIM_Base_Init+0x18>
 8103474:	f880 203c 	strb.w	r2, [r0, #60]	; 0x3c
 8103478:	f7fd f9e2 	bl	8100840 <HAL_TIM_Base_MspInit>
 810347c:	2302      	movs	r3, #2
 810347e:	6820      	ldr	r0, [r4, #0]
 8103480:	f884 303d 	strb.w	r3, [r4, #61]	; 0x3d
 8103484:	1d21      	adds	r1, r4, #4
 8103486:	f7ff ff87 	bl	8103398 <TIM_Base_SetConfig>
 810348a:	2301      	movs	r3, #1
 810348c:	f884 3048 	strb.w	r3, [r4, #72]	; 0x48
 8103490:	2000      	movs	r0, #0
 8103492:	f884 303e 	strb.w	r3, [r4, #62]	; 0x3e
 8103496:	f884 303f 	strb.w	r3, [r4, #63]	; 0x3f
 810349a:	f884 3040 	strb.w	r3, [r4, #64]	; 0x40
 810349e:	f884 3041 	strb.w	r3, [r4, #65]	; 0x41
 81034a2:	f884 3042 	strb.w	r3, [r4, #66]	; 0x42
 81034a6:	f884 3043 	strb.w	r3, [r4, #67]	; 0x43
 81034aa:	f884 3044 	strb.w	r3, [r4, #68]	; 0x44
 81034ae:	f884 3045 	strb.w	r3, [r4, #69]	; 0x45
 81034b2:	f884 3046 	strb.w	r3, [r4, #70]	; 0x46
 81034b6:	f884 3047 	strb.w	r3, [r4, #71]	; 0x47
 81034ba:	f884 303d 	strb.w	r3, [r4, #61]	; 0x3d
 81034be:	bd10      	pop	{r4, pc}
 81034c0:	2001      	movs	r0, #1
 81034c2:	e7fc      	b.n	81034be <HAL_TIM_Base_Init+0x5a>

081034c4 <HAL_TIM_PWM_Init>:
 81034c4:	b510      	push	{r4, lr}
 81034c6:	4604      	mov	r4, r0
 81034c8:	b350      	cbz	r0, 8103520 <HAL_TIM_PWM_Init+0x5c>
 81034ca:	f890 303d 	ldrb.w	r3, [r0, #61]	; 0x3d
 81034ce:	f003 02ff 	and.w	r2, r3, #255	; 0xff
 81034d2:	b91b      	cbnz	r3, 81034dc <HAL_TIM_PWM_Init+0x18>
 81034d4:	f880 203c 	strb.w	r2, [r0, #60]	; 0x3c
 81034d8:	f7ff fea8 	bl	810322c <HAL_TIM_PWM_MspInit>
 81034dc:	2302      	movs	r3, #2
 81034de:	6820      	ldr	r0, [r4, #0]
 81034e0:	f884 303d 	strb.w	r3, [r4, #61]	; 0x3d
 81034e4:	1d21      	adds	r1, r4, #4
 81034e6:	f7ff ff57 	bl	8103398 <TIM_Base_SetConfig>
 81034ea:	2301      	movs	r3, #1
 81034ec:	f884 3048 	strb.w	r3, [r4, #72]	; 0x48
 81034f0:	2000      	movs	r0, #0
 81034f2:	f884 303e 	strb.w	r3, [r4, #62]	; 0x3e
 81034f6:	f884 303f 	strb.w	r3, [r4, #63]	; 0x3f
 81034fa:	f884 3040 	strb.w	r3, [r4, #64]	; 0x40
 81034fe:	f884 3041 	strb.w	r3, [r4, #65]	; 0x41
 8103502:	f884 3042 	strb.w	r3, [r4, #66]	; 0x42
 8103506:	f884 3043 	strb.w	r3, [r4, #67]	; 0x43
 810350a:	f884 3044 	strb.w	r3, [r4, #68]	; 0x44
 810350e:	f884 3045 	strb.w	r3, [r4, #69]	; 0x45
 8103512:	f884 3046 	strb.w	r3, [r4, #70]	; 0x46
 8103516:	f884 3047 	strb.w	r3, [r4, #71]	; 0x47
 810351a:	f884 303d 	strb.w	r3, [r4, #61]	; 0x3d
 810351e:	bd10      	pop	{r4, pc}
 8103520:	2001      	movs	r0, #1
 8103522:	e7fc      	b.n	810351e <HAL_TIM_PWM_Init+0x5a>

08103524 <TIM_OC2_SetConfig>:
 8103524:	6a03      	ldr	r3, [r0, #32]
 8103526:	f023 0310 	bic.w	r3, r3, #16
 810352a:	6203      	str	r3, [r0, #32]
 810352c:	6a03      	ldr	r3, [r0, #32]
 810352e:	b570      	push	{r4, r5, r6, lr}
 8103530:	6844      	ldr	r4, [r0, #4]
 8103532:	6982      	ldr	r2, [r0, #24]
 8103534:	680d      	ldr	r5, [r1, #0]
 8103536:	f022 7280 	bic.w	r2, r2, #16777216	; 0x1000000
 810353a:	f422 42e6 	bic.w	r2, r2, #29440	; 0x7300
 810353e:	ea42 2205 	orr.w	r2, r2, r5, lsl #8
 8103542:	688d      	ldr	r5, [r1, #8]
 8103544:	f023 0320 	bic.w	r3, r3, #32
 8103548:	ea43 1305 	orr.w	r3, r3, r5, lsl #4
 810354c:	4d16      	ldr	r5, [pc, #88]	; (81035a8 <TIM_OC2_SetConfig+0x84>)
 810354e:	42a8      	cmp	r0, r5
 8103550:	d003      	beq.n	810355a <TIM_OC2_SetConfig+0x36>
 8103552:	f505 6580 	add.w	r5, r5, #1024	; 0x400
 8103556:	42a8      	cmp	r0, r5
 8103558:	d10d      	bne.n	8103576 <TIM_OC2_SetConfig+0x52>
 810355a:	68cd      	ldr	r5, [r1, #12]
 810355c:	f023 0380 	bic.w	r3, r3, #128	; 0x80
 8103560:	ea43 1305 	orr.w	r3, r3, r5, lsl #4
 8103564:	4d10      	ldr	r5, [pc, #64]	; (81035a8 <TIM_OC2_SetConfig+0x84>)
 8103566:	42a8      	cmp	r0, r5
 8103568:	f023 0340 	bic.w	r3, r3, #64	; 0x40
 810356c:	d00e      	beq.n	810358c <TIM_OC2_SetConfig+0x68>
 810356e:	f505 6580 	add.w	r5, r5, #1024	; 0x400
 8103572:	42a8      	cmp	r0, r5
 8103574:	d00a      	beq.n	810358c <TIM_OC2_SetConfig+0x68>
 8103576:	4d0d      	ldr	r5, [pc, #52]	; (81035ac <TIM_OC2_SetConfig+0x88>)
 8103578:	42a8      	cmp	r0, r5
 810357a:	d007      	beq.n	810358c <TIM_OC2_SetConfig+0x68>
 810357c:	f505 6580 	add.w	r5, r5, #1024	; 0x400
 8103580:	42a8      	cmp	r0, r5
 8103582:	d003      	beq.n	810358c <TIM_OC2_SetConfig+0x68>
 8103584:	f505 6580 	add.w	r5, r5, #1024	; 0x400
 8103588:	42a8      	cmp	r0, r5
 810358a:	d106      	bne.n	810359a <TIM_OC2_SetConfig+0x76>
 810358c:	f424 6540 	bic.w	r5, r4, #3072	; 0xc00
 8103590:	e9d1 4605 	ldrd	r4, r6, [r1, #20]
 8103594:	4334      	orrs	r4, r6
 8103596:	ea45 0484 	orr.w	r4, r5, r4, lsl #2
 810359a:	6044      	str	r4, [r0, #4]
 810359c:	6182      	str	r2, [r0, #24]
 810359e:	684a      	ldr	r2, [r1, #4]
 81035a0:	6382      	str	r2, [r0, #56]	; 0x38
 81035a2:	6203      	str	r3, [r0, #32]
 81035a4:	bd70      	pop	{r4, r5, r6, pc}
 81035a6:	bf00      	nop
 81035a8:	40010000 	.word	0x40010000
 81035ac:	40014000 	.word	0x40014000

081035b0 <HAL_TIM_PWM_ConfigChannel>:
 81035b0:	b538      	push	{r3, r4, r5, lr}
 81035b2:	f890 303c 	ldrb.w	r3, [r0, #60]	; 0x3c
 81035b6:	2b01      	cmp	r3, #1
 81035b8:	4604      	mov	r4, r0
 81035ba:	d078      	beq.n	81036ae <HAL_TIM_PWM_ConfigChannel+0xfe>
 81035bc:	2301      	movs	r3, #1
 81035be:	2a0c      	cmp	r2, #12
 81035c0:	f880 303c 	strb.w	r3, [r0, #60]	; 0x3c
 81035c4:	d051      	beq.n	810366a <HAL_TIM_PWM_ConfigChannel+0xba>
 81035c6:	d808      	bhi.n	81035da <HAL_TIM_PWM_ConfigChannel+0x2a>
 81035c8:	2a04      	cmp	r2, #4
 81035ca:	d02c      	beq.n	8103626 <HAL_TIM_PWM_ConfigChannel+0x76>
 81035cc:	2a08      	cmp	r2, #8
 81035ce:	d03b      	beq.n	8103648 <HAL_TIM_PWM_ConfigChannel+0x98>
 81035d0:	b1c2      	cbz	r2, 8103604 <HAL_TIM_PWM_ConfigChannel+0x54>
 81035d2:	2000      	movs	r0, #0
 81035d4:	f884 003c 	strb.w	r0, [r4, #60]	; 0x3c
 81035d8:	bd38      	pop	{r3, r4, r5, pc}
 81035da:	2a10      	cmp	r2, #16
 81035dc:	d056      	beq.n	810368c <HAL_TIM_PWM_ConfigChannel+0xdc>
 81035de:	2a14      	cmp	r2, #20
 81035e0:	d1f7      	bne.n	81035d2 <HAL_TIM_PWM_ConfigChannel+0x22>
 81035e2:	6800      	ldr	r0, [r0, #0]
 81035e4:	f7ff fd80 	bl	81030e8 <TIM_OC6_SetConfig>
 81035e8:	6823      	ldr	r3, [r4, #0]
 81035ea:	6909      	ldr	r1, [r1, #16]
 81035ec:	6d5a      	ldr	r2, [r3, #84]	; 0x54
 81035ee:	f442 6200 	orr.w	r2, r2, #2048	; 0x800
 81035f2:	655a      	str	r2, [r3, #84]	; 0x54
 81035f4:	6d5a      	ldr	r2, [r3, #84]	; 0x54
 81035f6:	f422 6280 	bic.w	r2, r2, #1024	; 0x400
 81035fa:	655a      	str	r2, [r3, #84]	; 0x54
 81035fc:	6d5a      	ldr	r2, [r3, #84]	; 0x54
 81035fe:	ea42 2201 	orr.w	r2, r2, r1, lsl #8
 8103602:	e052      	b.n	81036aa <HAL_TIM_PWM_ConfigChannel+0xfa>
 8103604:	6800      	ldr	r0, [r0, #0]
 8103606:	f7ff fc7d 	bl	8102f04 <TIM_OC1_SetConfig>
 810360a:	6823      	ldr	r3, [r4, #0]
 810360c:	6909      	ldr	r1, [r1, #16]
 810360e:	699a      	ldr	r2, [r3, #24]
 8103610:	f042 0208 	orr.w	r2, r2, #8
 8103614:	619a      	str	r2, [r3, #24]
 8103616:	699a      	ldr	r2, [r3, #24]
 8103618:	f022 0204 	bic.w	r2, r2, #4
 810361c:	619a      	str	r2, [r3, #24]
 810361e:	699a      	ldr	r2, [r3, #24]
 8103620:	430a      	orrs	r2, r1
 8103622:	619a      	str	r2, [r3, #24]
 8103624:	e7d5      	b.n	81035d2 <HAL_TIM_PWM_ConfigChannel+0x22>
 8103626:	6800      	ldr	r0, [r0, #0]
 8103628:	f7ff ff7c 	bl	8103524 <TIM_OC2_SetConfig>
 810362c:	6823      	ldr	r3, [r4, #0]
 810362e:	6909      	ldr	r1, [r1, #16]
 8103630:	699a      	ldr	r2, [r3, #24]
 8103632:	f442 6200 	orr.w	r2, r2, #2048	; 0x800
 8103636:	619a      	str	r2, [r3, #24]
 8103638:	699a      	ldr	r2, [r3, #24]
 810363a:	f422 6280 	bic.w	r2, r2, #1024	; 0x400
 810363e:	619a      	str	r2, [r3, #24]
 8103640:	699a      	ldr	r2, [r3, #24]
 8103642:	ea42 2201 	orr.w	r2, r2, r1, lsl #8
 8103646:	e7ec      	b.n	8103622 <HAL_TIM_PWM_ConfigChannel+0x72>
 8103648:	6800      	ldr	r0, [r0, #0]
 810364a:	f7ff fca7 	bl	8102f9c <TIM_OC3_SetConfig>
 810364e:	6823      	ldr	r3, [r4, #0]
 8103650:	6909      	ldr	r1, [r1, #16]
 8103652:	69da      	ldr	r2, [r3, #28]
 8103654:	f042 0208 	orr.w	r2, r2, #8
 8103658:	61da      	str	r2, [r3, #28]
 810365a:	69da      	ldr	r2, [r3, #28]
 810365c:	f022 0204 	bic.w	r2, r2, #4
 8103660:	61da      	str	r2, [r3, #28]
 8103662:	69da      	ldr	r2, [r3, #28]
 8103664:	430a      	orrs	r2, r1
 8103666:	61da      	str	r2, [r3, #28]
 8103668:	e7b3      	b.n	81035d2 <HAL_TIM_PWM_ConfigChannel+0x22>
 810366a:	6800      	ldr	r0, [r0, #0]
 810366c:	f7ff fcd8 	bl	8103020 <TIM_OC4_SetConfig>
 8103670:	6823      	ldr	r3, [r4, #0]
 8103672:	6909      	ldr	r1, [r1, #16]
 8103674:	69da      	ldr	r2, [r3, #28]
 8103676:	f442 6200 	orr.w	r2, r2, #2048	; 0x800
 810367a:	61da      	str	r2, [r3, #28]
 810367c:	69da      	ldr	r2, [r3, #28]
 810367e:	f422 6280 	bic.w	r2, r2, #1024	; 0x400
 8103682:	61da      	str	r2, [r3, #28]
 8103684:	69da      	ldr	r2, [r3, #28]
 8103686:	ea42 2201 	orr.w	r2, r2, r1, lsl #8
 810368a:	e7ec      	b.n	8103666 <HAL_TIM_PWM_ConfigChannel+0xb6>
 810368c:	6800      	ldr	r0, [r0, #0]
 810368e:	f7ff fcf9 	bl	8103084 <TIM_OC5_SetConfig>
 8103692:	6823      	ldr	r3, [r4, #0]
 8103694:	6909      	ldr	r1, [r1, #16]
 8103696:	6d5a      	ldr	r2, [r3, #84]	; 0x54
 8103698:	f042 0208 	orr.w	r2, r2, #8
 810369c:	655a      	str	r2, [r3, #84]	; 0x54
 810369e:	6d5a      	ldr	r2, [r3, #84]	; 0x54
 81036a0:	f022 0204 	bic.w	r2, r2, #4
 81036a4:	655a      	str	r2, [r3, #84]	; 0x54
 81036a6:	6d5a      	ldr	r2, [r3, #84]	; 0x54
 81036a8:	430a      	orrs	r2, r1
 81036aa:	655a      	str	r2, [r3, #84]	; 0x54
 81036ac:	e791      	b.n	81035d2 <HAL_TIM_PWM_ConfigChannel+0x22>
 81036ae:	2002      	movs	r0, #2
 81036b0:	e792      	b.n	81035d8 <HAL_TIM_PWM_ConfigChannel+0x28>

081036b2 <TIM_ETR_SetConfig>:
 81036b2:	b510      	push	{r4, lr}
 81036b4:	6884      	ldr	r4, [r0, #8]
 81036b6:	4311      	orrs	r1, r2
 81036b8:	f424 447f 	bic.w	r4, r4, #65280	; 0xff00
 81036bc:	ea41 2303 	orr.w	r3, r1, r3, lsl #8
 81036c0:	4323      	orrs	r3, r4
 81036c2:	6083      	str	r3, [r0, #8]
 81036c4:	bd10      	pop	{r4, pc}
	...

081036c8 <HAL_TIM_ConfigClockSource>:
 81036c8:	b570      	push	{r4, r5, r6, lr}
 81036ca:	f890 303c 	ldrb.w	r3, [r0, #60]	; 0x3c
 81036ce:	2b01      	cmp	r3, #1
 81036d0:	4604      	mov	r4, r0
 81036d2:	f04f 0002 	mov.w	r0, #2
 81036d6:	d02a      	beq.n	810372e <HAL_TIM_ConfigClockSource+0x66>
 81036d8:	f884 003d 	strb.w	r0, [r4, #61]	; 0x3d
 81036dc:	2301      	movs	r3, #1
 81036de:	6820      	ldr	r0, [r4, #0]
 81036e0:	f884 303c 	strb.w	r3, [r4, #60]	; 0x3c
 81036e4:	6882      	ldr	r2, [r0, #8]
 81036e6:	4b4e      	ldr	r3, [pc, #312]	; (8103820 <HAL_TIM_ConfigClockSource+0x158>)
 81036e8:	4013      	ands	r3, r2
 81036ea:	6083      	str	r3, [r0, #8]
 81036ec:	680b      	ldr	r3, [r1, #0]
 81036ee:	2b60      	cmp	r3, #96	; 0x60
 81036f0:	d062      	beq.n	81037b8 <HAL_TIM_ConfigClockSource+0xf0>
 81036f2:	d81d      	bhi.n	8103730 <HAL_TIM_ConfigClockSource+0x68>
 81036f4:	2b40      	cmp	r3, #64	; 0x40
 81036f6:	d079      	beq.n	81037ec <HAL_TIM_ConfigClockSource+0x124>
 81036f8:	d811      	bhi.n	810371e <HAL_TIM_ConfigClockSource+0x56>
 81036fa:	2b20      	cmp	r3, #32
 81036fc:	d003      	beq.n	8103706 <HAL_TIM_ConfigClockSource+0x3e>
 81036fe:	d80b      	bhi.n	8103718 <HAL_TIM_ConfigClockSource+0x50>
 8103700:	f033 0210 	bics.w	r2, r3, #16
 8103704:	d10d      	bne.n	8103722 <HAL_TIM_ConfigClockSource+0x5a>
 8103706:	6882      	ldr	r2, [r0, #8]
 8103708:	f422 1240 	bic.w	r2, r2, #3145728	; 0x300000
 810370c:	f022 0270 	bic.w	r2, r2, #112	; 0x70
 8103710:	4313      	orrs	r3, r2
 8103712:	f043 0307 	orr.w	r3, r3, #7
 8103716:	e04d      	b.n	81037b4 <HAL_TIM_ConfigClockSource+0xec>
 8103718:	2b30      	cmp	r3, #48	; 0x30
 810371a:	d0f4      	beq.n	8103706 <HAL_TIM_ConfigClockSource+0x3e>
 810371c:	e001      	b.n	8103722 <HAL_TIM_ConfigClockSource+0x5a>
 810371e:	2b50      	cmp	r3, #80	; 0x50
 8103720:	d030      	beq.n	8103784 <HAL_TIM_ConfigClockSource+0xbc>
 8103722:	2301      	movs	r3, #1
 8103724:	2000      	movs	r0, #0
 8103726:	f884 303d 	strb.w	r3, [r4, #61]	; 0x3d
 810372a:	f884 003c 	strb.w	r0, [r4, #60]	; 0x3c
 810372e:	bd70      	pop	{r4, r5, r6, pc}
 8103730:	f5b3 5f00 	cmp.w	r3, #8192	; 0x2000
 8103734:	d01c      	beq.n	8103770 <HAL_TIM_ConfigClockSource+0xa8>
 8103736:	d80c      	bhi.n	8103752 <HAL_TIM_ConfigClockSource+0x8a>
 8103738:	2b70      	cmp	r3, #112	; 0x70
 810373a:	d1f2      	bne.n	8103722 <HAL_TIM_ConfigClockSource+0x5a>
 810373c:	68cb      	ldr	r3, [r1, #12]
 810373e:	e9d1 2101 	ldrd	r2, r1, [r1, #4]
 8103742:	f7ff ffb6 	bl	81036b2 <TIM_ETR_SetConfig>
 8103746:	6822      	ldr	r2, [r4, #0]
 8103748:	6893      	ldr	r3, [r2, #8]
 810374a:	f043 0377 	orr.w	r3, r3, #119	; 0x77
 810374e:	6093      	str	r3, [r2, #8]
 8103750:	e7e7      	b.n	8103722 <HAL_TIM_ConfigClockSource+0x5a>
 8103752:	4a34      	ldr	r2, [pc, #208]	; (8103824 <HAL_TIM_ConfigClockSource+0x15c>)
 8103754:	4293      	cmp	r3, r2
 8103756:	d0d6      	beq.n	8103706 <HAL_TIM_ConfigClockSource+0x3e>
 8103758:	d804      	bhi.n	8103764 <HAL_TIM_ConfigClockSource+0x9c>
 810375a:	f023 0210 	bic.w	r2, r3, #16
 810375e:	f5b2 1f80 	cmp.w	r2, #1048576	; 0x100000
 8103762:	e7da      	b.n	810371a <HAL_TIM_ConfigClockSource+0x52>
 8103764:	4a30      	ldr	r2, [pc, #192]	; (8103828 <HAL_TIM_ConfigClockSource+0x160>)
 8103766:	4293      	cmp	r3, r2
 8103768:	d0cd      	beq.n	8103706 <HAL_TIM_ConfigClockSource+0x3e>
 810376a:	3210      	adds	r2, #16
 810376c:	4293      	cmp	r3, r2
 810376e:	e7d4      	b.n	810371a <HAL_TIM_ConfigClockSource+0x52>
 8103770:	68cb      	ldr	r3, [r1, #12]
 8103772:	e9d1 2101 	ldrd	r2, r1, [r1, #4]
 8103776:	f7ff ff9c 	bl	81036b2 <TIM_ETR_SetConfig>
 810377a:	6822      	ldr	r2, [r4, #0]
 810377c:	6893      	ldr	r3, [r2, #8]
 810377e:	f443 4380 	orr.w	r3, r3, #16384	; 0x4000
 8103782:	e7e4      	b.n	810374e <HAL_TIM_ConfigClockSource+0x86>
 8103784:	684a      	ldr	r2, [r1, #4]
 8103786:	68ce      	ldr	r6, [r1, #12]
 8103788:	6a01      	ldr	r1, [r0, #32]
 810378a:	6a05      	ldr	r5, [r0, #32]
 810378c:	f025 0501 	bic.w	r5, r5, #1
 8103790:	6205      	str	r5, [r0, #32]
 8103792:	6983      	ldr	r3, [r0, #24]
 8103794:	f021 010a 	bic.w	r1, r1, #10
 8103798:	f023 03f0 	bic.w	r3, r3, #240	; 0xf0
 810379c:	ea43 1306 	orr.w	r3, r3, r6, lsl #4
 81037a0:	430a      	orrs	r2, r1
 81037a2:	6183      	str	r3, [r0, #24]
 81037a4:	6202      	str	r2, [r0, #32]
 81037a6:	6883      	ldr	r3, [r0, #8]
 81037a8:	f423 1340 	bic.w	r3, r3, #3145728	; 0x300000
 81037ac:	f023 0370 	bic.w	r3, r3, #112	; 0x70
 81037b0:	f043 0357 	orr.w	r3, r3, #87	; 0x57
 81037b4:	6083      	str	r3, [r0, #8]
 81037b6:	e7b4      	b.n	8103722 <HAL_TIM_ConfigClockSource+0x5a>
 81037b8:	684d      	ldr	r5, [r1, #4]
 81037ba:	68ce      	ldr	r6, [r1, #12]
 81037bc:	6a01      	ldr	r1, [r0, #32]
 81037be:	f021 0110 	bic.w	r1, r1, #16
 81037c2:	6201      	str	r1, [r0, #32]
 81037c4:	6982      	ldr	r2, [r0, #24]
 81037c6:	6a03      	ldr	r3, [r0, #32]
 81037c8:	f422 4270 	bic.w	r2, r2, #61440	; 0xf000
 81037cc:	f023 03a0 	bic.w	r3, r3, #160	; 0xa0
 81037d0:	ea43 1305 	orr.w	r3, r3, r5, lsl #4
 81037d4:	ea42 3206 	orr.w	r2, r2, r6, lsl #12
 81037d8:	6182      	str	r2, [r0, #24]
 81037da:	6203      	str	r3, [r0, #32]
 81037dc:	6883      	ldr	r3, [r0, #8]
 81037de:	f423 1340 	bic.w	r3, r3, #3145728	; 0x300000
 81037e2:	f023 0370 	bic.w	r3, r3, #112	; 0x70
 81037e6:	f043 0367 	orr.w	r3, r3, #103	; 0x67
 81037ea:	e7e3      	b.n	81037b4 <HAL_TIM_ConfigClockSource+0xec>
 81037ec:	684a      	ldr	r2, [r1, #4]
 81037ee:	68ce      	ldr	r6, [r1, #12]
 81037f0:	6a01      	ldr	r1, [r0, #32]
 81037f2:	6a05      	ldr	r5, [r0, #32]
 81037f4:	f025 0501 	bic.w	r5, r5, #1
 81037f8:	6205      	str	r5, [r0, #32]
 81037fa:	6983      	ldr	r3, [r0, #24]
 81037fc:	f021 010a 	bic.w	r1, r1, #10
 8103800:	f023 03f0 	bic.w	r3, r3, #240	; 0xf0
 8103804:	ea43 1306 	orr.w	r3, r3, r6, lsl #4
 8103808:	430a      	orrs	r2, r1
 810380a:	6183      	str	r3, [r0, #24]
 810380c:	6202      	str	r2, [r0, #32]
 810380e:	6883      	ldr	r3, [r0, #8]
 8103810:	f423 1340 	bic.w	r3, r3, #3145728	; 0x300000
 8103814:	f023 0370 	bic.w	r3, r3, #112	; 0x70
 8103818:	f043 0347 	orr.w	r3, r3, #71	; 0x47
 810381c:	e7ca      	b.n	81037b4 <HAL_TIM_ConfigClockSource+0xec>
 810381e:	bf00      	nop
 8103820:	ffce0088 	.word	0xffce0088
 8103824:	00100020 	.word	0x00100020
 8103828:	00100030 	.word	0x00100030

0810382c <TIM_CCxChannelCmd>:
 810382c:	6a03      	ldr	r3, [r0, #32]
 810382e:	f001 011f 	and.w	r1, r1, #31
 8103832:	b510      	push	{r4, lr}
 8103834:	2401      	movs	r4, #1
 8103836:	408c      	lsls	r4, r1
 8103838:	ea23 0304 	bic.w	r3, r3, r4
 810383c:	6203      	str	r3, [r0, #32]
 810383e:	6a03      	ldr	r3, [r0, #32]
 8103840:	408a      	lsls	r2, r1
 8103842:	431a      	orrs	r2, r3
 8103844:	6202      	str	r2, [r0, #32]
 8103846:	bd10      	pop	{r4, pc}

08103848 <HAL_TIM_OC_Start>:
 8103848:	b510      	push	{r4, lr}
 810384a:	4604      	mov	r4, r0
 810384c:	b929      	cbnz	r1, 810385a <HAL_TIM_OC_Start+0x12>
 810384e:	f890 303e 	ldrb.w	r3, [r0, #62]	; 0x3e
 8103852:	2b01      	cmp	r3, #1
 8103854:	d031      	beq.n	81038ba <HAL_TIM_OC_Start+0x72>
 8103856:	2001      	movs	r0, #1
 8103858:	bd10      	pop	{r4, pc}
 810385a:	2904      	cmp	r1, #4
 810385c:	d107      	bne.n	810386e <HAL_TIM_OC_Start+0x26>
 810385e:	f890 303f 	ldrb.w	r3, [r0, #63]	; 0x3f
 8103862:	2b01      	cmp	r3, #1
 8103864:	d1f7      	bne.n	8103856 <HAL_TIM_OC_Start+0xe>
 8103866:	2302      	movs	r3, #2
 8103868:	f880 303f 	strb.w	r3, [r0, #63]	; 0x3f
 810386c:	e028      	b.n	81038c0 <HAL_TIM_OC_Start+0x78>
 810386e:	2908      	cmp	r1, #8
 8103870:	d107      	bne.n	8103882 <HAL_TIM_OC_Start+0x3a>
 8103872:	f890 3040 	ldrb.w	r3, [r0, #64]	; 0x40
 8103876:	2b01      	cmp	r3, #1
 8103878:	d1ed      	bne.n	8103856 <HAL_TIM_OC_Start+0xe>
 810387a:	2302      	movs	r3, #2
 810387c:	f880 3040 	strb.w	r3, [r0, #64]	; 0x40
 8103880:	e01e      	b.n	81038c0 <HAL_TIM_OC_Start+0x78>
 8103882:	290c      	cmp	r1, #12
 8103884:	d107      	bne.n	8103896 <HAL_TIM_OC_Start+0x4e>
 8103886:	f890 3041 	ldrb.w	r3, [r0, #65]	; 0x41
 810388a:	2b01      	cmp	r3, #1
 810388c:	d1e3      	bne.n	8103856 <HAL_TIM_OC_Start+0xe>
 810388e:	2302      	movs	r3, #2
 8103890:	f880 3041 	strb.w	r3, [r0, #65]	; 0x41
 8103894:	e014      	b.n	81038c0 <HAL_TIM_OC_Start+0x78>
 8103896:	2910      	cmp	r1, #16
 8103898:	d107      	bne.n	81038aa <HAL_TIM_OC_Start+0x62>
 810389a:	f890 3042 	ldrb.w	r3, [r0, #66]	; 0x42
 810389e:	2b01      	cmp	r3, #1
 81038a0:	d1d9      	bne.n	8103856 <HAL_TIM_OC_Start+0xe>
 81038a2:	2302      	movs	r3, #2
 81038a4:	f880 3042 	strb.w	r3, [r0, #66]	; 0x42
 81038a8:	e00a      	b.n	81038c0 <HAL_TIM_OC_Start+0x78>
 81038aa:	f890 3043 	ldrb.w	r3, [r0, #67]	; 0x43
 81038ae:	2b01      	cmp	r3, #1
 81038b0:	d1d1      	bne.n	8103856 <HAL_TIM_OC_Start+0xe>
 81038b2:	2302      	movs	r3, #2
 81038b4:	f880 3043 	strb.w	r3, [r0, #67]	; 0x43
 81038b8:	e002      	b.n	81038c0 <HAL_TIM_OC_Start+0x78>
 81038ba:	2302      	movs	r3, #2
 81038bc:	f880 303e 	strb.w	r3, [r0, #62]	; 0x3e
 81038c0:	2201      	movs	r2, #1
 81038c2:	6820      	ldr	r0, [r4, #0]
 81038c4:	f7ff ffb2 	bl	810382c <TIM_CCxChannelCmd>
 81038c8:	6823      	ldr	r3, [r4, #0]
 81038ca:	4a20      	ldr	r2, [pc, #128]	; (810394c <HAL_TIM_OC_Start+0x104>)
 81038cc:	4293      	cmp	r3, r2
 81038ce:	d019      	beq.n	8103904 <HAL_TIM_OC_Start+0xbc>
 81038d0:	f502 6280 	add.w	r2, r2, #1024	; 0x400
 81038d4:	4293      	cmp	r3, r2
 81038d6:	d015      	beq.n	8103904 <HAL_TIM_OC_Start+0xbc>
 81038d8:	f502 5270 	add.w	r2, r2, #15360	; 0x3c00
 81038dc:	4293      	cmp	r3, r2
 81038de:	d011      	beq.n	8103904 <HAL_TIM_OC_Start+0xbc>
 81038e0:	f502 6280 	add.w	r2, r2, #1024	; 0x400
 81038e4:	4293      	cmp	r3, r2
 81038e6:	d00d      	beq.n	8103904 <HAL_TIM_OC_Start+0xbc>
 81038e8:	f502 6280 	add.w	r2, r2, #1024	; 0x400
 81038ec:	4293      	cmp	r3, r2
 81038ee:	d009      	beq.n	8103904 <HAL_TIM_OC_Start+0xbc>
 81038f0:	f1b3 4f80 	cmp.w	r3, #1073741824	; 0x40000000
 81038f4:	d10e      	bne.n	8103914 <HAL_TIM_OC_Start+0xcc>
 81038f6:	6899      	ldr	r1, [r3, #8]
 81038f8:	4a15      	ldr	r2, [pc, #84]	; (8103950 <HAL_TIM_OC_Start+0x108>)
 81038fa:	400a      	ands	r2, r1
 81038fc:	2a06      	cmp	r2, #6
 81038fe:	d121      	bne.n	8103944 <HAL_TIM_OC_Start+0xfc>
 8103900:	2000      	movs	r0, #0
 8103902:	e7a9      	b.n	8103858 <HAL_TIM_OC_Start+0x10>
 8103904:	6c5a      	ldr	r2, [r3, #68]	; 0x44
 8103906:	f442 4200 	orr.w	r2, r2, #32768	; 0x8000
 810390a:	645a      	str	r2, [r3, #68]	; 0x44
 810390c:	4a0f      	ldr	r2, [pc, #60]	; (810394c <HAL_TIM_OC_Start+0x104>)
 810390e:	4293      	cmp	r3, r2
 8103910:	d1ee      	bne.n	81038f0 <HAL_TIM_OC_Start+0xa8>
 8103912:	e7f0      	b.n	81038f6 <HAL_TIM_OC_Start+0xae>
 8103914:	4a0f      	ldr	r2, [pc, #60]	; (8103954 <HAL_TIM_OC_Start+0x10c>)
 8103916:	4293      	cmp	r3, r2
 8103918:	d0ed      	beq.n	81038f6 <HAL_TIM_OC_Start+0xae>
 810391a:	f502 6280 	add.w	r2, r2, #1024	; 0x400
 810391e:	4293      	cmp	r3, r2
 8103920:	d0e9      	beq.n	81038f6 <HAL_TIM_OC_Start+0xae>
 8103922:	f502 6280 	add.w	r2, r2, #1024	; 0x400
 8103926:	4293      	cmp	r3, r2
 8103928:	d0e5      	beq.n	81038f6 <HAL_TIM_OC_Start+0xae>
 810392a:	f502 4278 	add.w	r2, r2, #63488	; 0xf800
 810392e:	4293      	cmp	r3, r2
 8103930:	d0e1      	beq.n	81038f6 <HAL_TIM_OC_Start+0xae>
 8103932:	f5a2 426c 	sub.w	r2, r2, #60416	; 0xec00
 8103936:	4293      	cmp	r3, r2
 8103938:	d0dd      	beq.n	81038f6 <HAL_TIM_OC_Start+0xae>
 810393a:	681a      	ldr	r2, [r3, #0]
 810393c:	f042 0201 	orr.w	r2, r2, #1
 8103940:	601a      	str	r2, [r3, #0]
 8103942:	e7dd      	b.n	8103900 <HAL_TIM_OC_Start+0xb8>
 8103944:	f5b2 3f80 	cmp.w	r2, #65536	; 0x10000
 8103948:	d1f7      	bne.n	810393a <HAL_TIM_OC_Start+0xf2>
 810394a:	e7d9      	b.n	8103900 <HAL_TIM_OC_Start+0xb8>
 810394c:	40010000 	.word	0x40010000
 8103950:	00010007 	.word	0x00010007
 8103954:	40000400 	.word	0x40000400

08103958 <HAL_TIM_PWM_Start>:
 8103958:	f7ff bf76 	b.w	8103848 <HAL_TIM_OC_Start>

0810395c <HAL_TIMEx_MasterConfigSynchronization>:
 810395c:	b530      	push	{r4, r5, lr}
 810395e:	f890 303c 	ldrb.w	r3, [r0, #60]	; 0x3c
 8103962:	2b01      	cmp	r3, #1
 8103964:	f04f 0302 	mov.w	r3, #2
 8103968:	d039      	beq.n	81039de <HAL_TIMEx_MasterConfigSynchronization+0x82>
 810396a:	f880 303d 	strb.w	r3, [r0, #61]	; 0x3d
 810396e:	4d1d      	ldr	r5, [pc, #116]	; (81039e4 <HAL_TIMEx_MasterConfigSynchronization+0x88>)
 8103970:	6803      	ldr	r3, [r0, #0]
 8103972:	42ab      	cmp	r3, r5
 8103974:	685a      	ldr	r2, [r3, #4]
 8103976:	689c      	ldr	r4, [r3, #8]
 8103978:	d003      	beq.n	8103982 <HAL_TIMEx_MasterConfigSynchronization+0x26>
 810397a:	f505 6580 	add.w	r5, r5, #1024	; 0x400
 810397e:	42ab      	cmp	r3, r5
 8103980:	d103      	bne.n	810398a <HAL_TIMEx_MasterConfigSynchronization+0x2e>
 8103982:	684d      	ldr	r5, [r1, #4]
 8103984:	f422 0270 	bic.w	r2, r2, #15728640	; 0xf00000
 8103988:	432a      	orrs	r2, r5
 810398a:	680d      	ldr	r5, [r1, #0]
 810398c:	f022 0270 	bic.w	r2, r2, #112	; 0x70
 8103990:	432a      	orrs	r2, r5
 8103992:	605a      	str	r2, [r3, #4]
 8103994:	4a13      	ldr	r2, [pc, #76]	; (81039e4 <HAL_TIMEx_MasterConfigSynchronization+0x88>)
 8103996:	4293      	cmp	r3, r2
 8103998:	d016      	beq.n	81039c8 <HAL_TIMEx_MasterConfigSynchronization+0x6c>
 810399a:	f1b3 4f80 	cmp.w	r3, #1073741824	; 0x40000000
 810399e:	d013      	beq.n	81039c8 <HAL_TIMEx_MasterConfigSynchronization+0x6c>
 81039a0:	f5a2 427c 	sub.w	r2, r2, #64512	; 0xfc00
 81039a4:	4293      	cmp	r3, r2
 81039a6:	d00f      	beq.n	81039c8 <HAL_TIMEx_MasterConfigSynchronization+0x6c>
 81039a8:	f502 6280 	add.w	r2, r2, #1024	; 0x400
 81039ac:	4293      	cmp	r3, r2
 81039ae:	d00b      	beq.n	81039c8 <HAL_TIMEx_MasterConfigSynchronization+0x6c>
 81039b0:	f502 6280 	add.w	r2, r2, #1024	; 0x400
 81039b4:	4293      	cmp	r3, r2
 81039b6:	d007      	beq.n	81039c8 <HAL_TIMEx_MasterConfigSynchronization+0x6c>
 81039b8:	f502 4278 	add.w	r2, r2, #63488	; 0xf800
 81039bc:	4293      	cmp	r3, r2
 81039be:	d003      	beq.n	81039c8 <HAL_TIMEx_MasterConfigSynchronization+0x6c>
 81039c0:	f5a2 426c 	sub.w	r2, r2, #60416	; 0xec00
 81039c4:	4293      	cmp	r3, r2
 81039c6:	d104      	bne.n	81039d2 <HAL_TIMEx_MasterConfigSynchronization+0x76>
 81039c8:	6889      	ldr	r1, [r1, #8]
 81039ca:	f024 0280 	bic.w	r2, r4, #128	; 0x80
 81039ce:	430a      	orrs	r2, r1
 81039d0:	609a      	str	r2, [r3, #8]
 81039d2:	2301      	movs	r3, #1
 81039d4:	f880 303d 	strb.w	r3, [r0, #61]	; 0x3d
 81039d8:	2300      	movs	r3, #0
 81039da:	f880 303c 	strb.w	r3, [r0, #60]	; 0x3c
 81039de:	4618      	mov	r0, r3
 81039e0:	bd30      	pop	{r4, r5, pc}
 81039e2:	bf00      	nop
 81039e4:	40010000 	.word	0x40010000

081039e8 <HAL_TIMEx_ConfigBreakDeadTime>:
 81039e8:	b510      	push	{r4, lr}
 81039ea:	f890 303c 	ldrb.w	r3, [r0, #60]	; 0x3c
 81039ee:	2b01      	cmp	r3, #1
 81039f0:	d038      	beq.n	8103a64 <HAL_TIMEx_ConfigBreakDeadTime+0x7c>
 81039f2:	68cb      	ldr	r3, [r1, #12]
 81039f4:	688a      	ldr	r2, [r1, #8]
 81039f6:	4c1c      	ldr	r4, [pc, #112]	; (8103a68 <HAL_TIMEx_ConfigBreakDeadTime+0x80>)
 81039f8:	f423 7340 	bic.w	r3, r3, #768	; 0x300
 81039fc:	4313      	orrs	r3, r2
 81039fe:	684a      	ldr	r2, [r1, #4]
 8103a00:	f423 6380 	bic.w	r3, r3, #1024	; 0x400
 8103a04:	4313      	orrs	r3, r2
 8103a06:	680a      	ldr	r2, [r1, #0]
 8103a08:	f423 6300 	bic.w	r3, r3, #2048	; 0x800
 8103a0c:	4313      	orrs	r3, r2
 8103a0e:	690a      	ldr	r2, [r1, #16]
 8103a10:	f423 5380 	bic.w	r3, r3, #4096	; 0x1000
 8103a14:	4313      	orrs	r3, r2
 8103a16:	694a      	ldr	r2, [r1, #20]
 8103a18:	f423 5300 	bic.w	r3, r3, #8192	; 0x2000
 8103a1c:	4313      	orrs	r3, r2
 8103a1e:	6a8a      	ldr	r2, [r1, #40]	; 0x28
 8103a20:	f423 4380 	bic.w	r3, r3, #16384	; 0x4000
 8103a24:	4313      	orrs	r3, r2
 8103a26:	698a      	ldr	r2, [r1, #24]
 8103a28:	f423 2370 	bic.w	r3, r3, #983040	; 0xf0000
 8103a2c:	ea43 4302 	orr.w	r3, r3, r2, lsl #16
 8103a30:	6802      	ldr	r2, [r0, #0]
 8103a32:	42a2      	cmp	r2, r4
 8103a34:	d003      	beq.n	8103a3e <HAL_TIMEx_ConfigBreakDeadTime+0x56>
 8103a36:	f504 6480 	add.w	r4, r4, #1024	; 0x400
 8103a3a:	42a2      	cmp	r2, r4
 8103a3c:	d10c      	bne.n	8103a58 <HAL_TIMEx_ConfigBreakDeadTime+0x70>
 8103a3e:	6a4c      	ldr	r4, [r1, #36]	; 0x24
 8103a40:	f423 0370 	bic.w	r3, r3, #15728640	; 0xf00000
 8103a44:	ea43 5304 	orr.w	r3, r3, r4, lsl #20
 8103a48:	69cc      	ldr	r4, [r1, #28]
 8103a4a:	6a09      	ldr	r1, [r1, #32]
 8103a4c:	f023 7380 	bic.w	r3, r3, #16777216	; 0x1000000
 8103a50:	4323      	orrs	r3, r4
 8103a52:	f023 7300 	bic.w	r3, r3, #33554432	; 0x2000000
 8103a56:	430b      	orrs	r3, r1
 8103a58:	6453      	str	r3, [r2, #68]	; 0x44
 8103a5a:	2300      	movs	r3, #0
 8103a5c:	f880 303c 	strb.w	r3, [r0, #60]	; 0x3c
 8103a60:	4618      	mov	r0, r3
 8103a62:	bd10      	pop	{r4, pc}
 8103a64:	2002      	movs	r0, #2
 8103a66:	e7fc      	b.n	8103a62 <HAL_TIMEx_ConfigBreakDeadTime+0x7a>
 8103a68:	40010000 	.word	0x40010000

08103a6c <HAL_TIMEx_CommutCallback>:
 8103a6c:	4770      	bx	lr

08103a6e <HAL_TIMEx_BreakCallback>:
 8103a6e:	4770      	bx	lr

08103a70 <HAL_TIMEx_Break2Callback>:
 8103a70:	4770      	bx	lr
	...

08103a74 <__libc_init_array>:
 8103a74:	b570      	push	{r4, r5, r6, lr}
 8103a76:	4d0d      	ldr	r5, [pc, #52]	; (8103aac <__libc_init_array+0x38>)
 8103a78:	4c0d      	ldr	r4, [pc, #52]	; (8103ab0 <__libc_init_array+0x3c>)
 8103a7a:	1b64      	subs	r4, r4, r5
 8103a7c:	10a4      	asrs	r4, r4, #2
 8103a7e:	2600      	movs	r6, #0
 8103a80:	42a6      	cmp	r6, r4
 8103a82:	d109      	bne.n	8103a98 <__libc_init_array+0x24>
 8103a84:	4d0b      	ldr	r5, [pc, #44]	; (8103ab4 <__libc_init_array+0x40>)
 8103a86:	4c0c      	ldr	r4, [pc, #48]	; (8103ab8 <__libc_init_array+0x44>)
 8103a88:	f000 f820 	bl	8103acc <_init>
 8103a8c:	1b64      	subs	r4, r4, r5
 8103a8e:	10a4      	asrs	r4, r4, #2
 8103a90:	2600      	movs	r6, #0
 8103a92:	42a6      	cmp	r6, r4
 8103a94:	d105      	bne.n	8103aa2 <__libc_init_array+0x2e>
 8103a96:	bd70      	pop	{r4, r5, r6, pc}
 8103a98:	f855 3b04 	ldr.w	r3, [r5], #4
 8103a9c:	4798      	blx	r3
 8103a9e:	3601      	adds	r6, #1
 8103aa0:	e7ee      	b.n	8103a80 <__libc_init_array+0xc>
 8103aa2:	f855 3b04 	ldr.w	r3, [r5], #4
 8103aa6:	4798      	blx	r3
 8103aa8:	3601      	adds	r6, #1
 8103aaa:	e7f2      	b.n	8103a92 <__libc_init_array+0x1e>
 8103aac:	08103af4 	.word	0x08103af4
 8103ab0:	08103af4 	.word	0x08103af4
 8103ab4:	08103af4 	.word	0x08103af4
 8103ab8:	08103af8 	.word	0x08103af8

08103abc <memset>:
 8103abc:	4402      	add	r2, r0
 8103abe:	4603      	mov	r3, r0
 8103ac0:	4293      	cmp	r3, r2
 8103ac2:	d100      	bne.n	8103ac6 <memset+0xa>
 8103ac4:	4770      	bx	lr
 8103ac6:	f803 1b01 	strb.w	r1, [r3], #1
 8103aca:	e7f9      	b.n	8103ac0 <memset+0x4>

08103acc <_init>:
 8103acc:	b5f8      	push	{r3, r4, r5, r6, r7, lr}
 8103ace:	bf00      	nop
 8103ad0:	bcf8      	pop	{r3, r4, r5, r6, r7}
 8103ad2:	bc08      	pop	{r3}
 8103ad4:	469e      	mov	lr, r3
 8103ad6:	4770      	bx	lr

08103ad8 <_fini>:
 8103ad8:	b5f8      	push	{r3, r4, r5, r6, r7, lr}
 8103ada:	bf00      	nop
 8103adc:	bcf8      	pop	{r3, r4, r5, r6, r7}
 8103ade:	bc08      	pop	{r3}
 8103ae0:	469e      	mov	lr, r3
 8103ae2:	4770      	bx	lr
